	.file	"app.cpp"
	.text
	.section	.text._ZnwmPv,"axG",@progbits,_ZnwmPv,comdat
	.weak	_ZnwmPv
	.type	_ZnwmPv, @function
_ZnwmPv:
.LFB38:
	.cfi_startproc
	endbr64
	pushq	%rbp
	.cfi_def_cfa_offset 16
	.cfi_offset 6, -16
	movq	%rsp, %rbp
	.cfi_def_cfa_register 6
	movq	%rdi, -8(%rbp)
	movq	%rsi, -16(%rbp)
	movq	-16(%rbp), %rax
	popq	%rbp
	.cfi_def_cfa 7, 8
	ret
	.cfi_endproc
.LFE38:
	.size	_ZnwmPv, .-_ZnwmPv
	.section	.text._ZdlPvS_,"axG",@progbits,_ZdlPvS_,comdat
	.weak	_ZdlPvS_
	.type	_ZdlPvS_, @function
_ZdlPvS_:
.LFB40:
	.cfi_startproc
	endbr64
	pushq	%rbp
	.cfi_def_cfa_offset 16
	.cfi_offset 6, -16
	movq	%rsp, %rbp
	.cfi_def_cfa_register 6
	movq	%rdi, -8(%rbp)
	movq	%rsi, -16(%rbp)
	nop
	popq	%rbp
	.cfi_def_cfa 7, 8
	ret
	.cfi_endproc
.LFE40:
	.size	_ZdlPvS_, .-_ZdlPvS_
	.weak	_ZSt19piecewise_construct
	.section	.rodata._ZSt19piecewise_construct,"aG",@progbits,_ZSt19piecewise_construct,comdat
	.type	_ZSt19piecewise_construct, @gnu_unique_object
	.size	_ZSt19piecewise_construct, 1
_ZSt19piecewise_construct:
	.zero	1
	.section	.text._ZNSt11char_traitsIcE6assignERcRKc,"axG",@progbits,_ZNSt11char_traitsIcE6assignERcRKc,comdat
	.weak	_ZNSt11char_traitsIcE6assignERcRKc
	.type	_ZNSt11char_traitsIcE6assignERcRKc, @function
_ZNSt11char_traitsIcE6assignERcRKc:
.LFB445:
	.cfi_startproc
	endbr64
	pushq	%rbp
	.cfi_def_cfa_offset 16
	.cfi_offset 6, -16
	movq	%rsp, %rbp
	.cfi_def_cfa_register 6
	movq	%rdi, -8(%rbp)
	movq	%rsi, -16(%rbp)
	movq	-16(%rbp), %rax
	movzbl	(%rax), %edx
	movq	-8(%rbp), %rax
	movb	%dl, (%rax)
	nop
	popq	%rbp
	.cfi_def_cfa 7, 8
	ret
	.cfi_endproc
.LFE445:
	.size	_ZNSt11char_traitsIcE6assignERcRKc, .-_ZNSt11char_traitsIcE6assignERcRKc
	.section	.text._ZNSt11char_traitsIcE6lengthEPKc,"axG",@progbits,_ZNSt11char_traitsIcE6lengthEPKc,comdat
	.weak	_ZNSt11char_traitsIcE6lengthEPKc
	.type	_ZNSt11char_traitsIcE6lengthEPKc, @function
_ZNSt11char_traitsIcE6lengthEPKc:
.LFB450:
	.cfi_startproc
	endbr64
	pushq	%rbp
	.cfi_def_cfa_offset 16
	.cfi_offset 6, -16
	movq	%rsp, %rbp
	.cfi_def_cfa_register 6
	subq	$32, %rsp
	movq	%rdi, -24(%rbp)
	movq	-24(%rbp), %rax
	movq	%rax, -8(%rbp)
	movl	$0, %eax
	testb	%al, %al
	je	.L7
	movq	-24(%rbp), %rax
	movq	%rax, %rdi
	call	_ZN9__gnu_cxx11char_traitsIcE6lengthEPKc
	jmp	.L8
.L7:
	movq	-24(%rbp), %rax
	movq	%rax, %rdi
	call	strlen@PLT
	nop
.L8:
	leave
	.cfi_def_cfa 7, 8
	ret
	.cfi_endproc
.LFE450:
	.size	_ZNSt11char_traitsIcE6lengthEPKc, .-_ZNSt11char_traitsIcE6lengthEPKc
	.section	.text._ZNSt7__cxx119to_stringEi,"axG",@progbits,_ZNSt7__cxx119to_stringEi,comdat
	.weak	_ZNSt7__cxx119to_stringEi
	.type	_ZNSt7__cxx119to_stringEi, @function
_ZNSt7__cxx119to_stringEi:
.LFB1141:
	.cfi_startproc
	.cfi_personality 0x9b,DW.ref.__gxx_personality_v0
	.cfi_lsda 0x1b,.LLSDA1141
	endbr64
	pushq	%rbp
	.cfi_def_cfa_offset 16
	.cfi_offset 6, -16
	movq	%rsp, %rbp
	.cfi_def_cfa_register 6
	pushq	%rbx
	subq	$56, %rsp
	.cfi_offset 3, -24
	movq	%rdi, -56(%rbp)
	movl	%esi, -60(%rbp)
	movq	%fs:40, %rax
	movq	%rax, -24(%rbp)
	xorl	%eax, %eax
	movl	-60(%rbp), %eax
	shrl	$31, %eax
	movb	%al, -33(%rbp)
	cmpb	$0, -33(%rbp)
	je	.L10
	movl	-60(%rbp), %eax
	negl	%eax
	jmp	.L11
.L10:
	movl	-60(%rbp), %eax
.L11:
	movl	%eax, -32(%rbp)
	movl	-32(%rbp), %eax
	movl	$10, %esi
	movl	%eax, %edi
	call	_ZNSt8__detail14__to_chars_lenIjEEjT_i
	movl	%eax, -28(%rbp)
	leaq	-34(%rbp), %rax
	movq	%rax, %rdi
	call	_ZNSaIcEC1Ev@PLT
	movzbl	-33(%rbp), %edx
	movl	-28(%rbp), %eax
	addl	%edx, %eax
	movl	%eax, %esi
	leaq	-34(%rbp), %rdx
	movq	-56(%rbp), %rax
	movq	%rdx, %rcx
	movl	$45, %edx
	movq	%rax, %rdi
.LEHB0:
	call	_ZNSt7__cxx1112basic_stringIcSt11char_traitsIcESaIcEEC1IS3_EEmcRKS3_
.LEHE0:
	leaq	-34(%rbp), %rax
	movq	%rax, %rdi
	call	_ZNSaIcED1Ev@PLT
	movzbl	-33(%rbp), %edx
	movq	-56(%rbp), %rax
	movq	%rdx, %rsi
	movq	%rax, %rdi
.LEHB1:
	call	_ZNSt7__cxx1112basic_stringIcSt11char_traitsIcESaIcEEixEm@PLT
.LEHE1:
	movq	%rax, %rcx
	movl	-32(%rbp), %edx
	movl	-28(%rbp), %eax
	movl	%eax, %esi
	movq	%rcx, %rdi
	call	_ZNSt8__detail18__to_chars_10_implIjEEvPcjT_
	nop
	movq	-24(%rbp), %rax
	subq	%fs:40, %rax
	je	.L15
	jmp	.L18
.L16:
	endbr64
	movq	%rax, %rbx
	leaq	-34(%rbp), %rax
	movq	%rax, %rdi
	call	_ZNSaIcED1Ev@PLT
	movq	%rbx, %rax
	movq	%rax, %rdi
.LEHB2:
	call	_Unwind_Resume@PLT
.L17:
	endbr64
	movq	%rax, %rbx
	movq	-56(%rbp), %rax
	movq	%rax, %rdi
	call	_ZNSt7__cxx1112basic_stringIcSt11char_traitsIcESaIcEED1Ev@PLT
	movq	%rbx, %rax
	movq	%rax, %rdi
	call	_Unwind_Resume@PLT
.LEHE2:
.L18:
	call	__stack_chk_fail@PLT
.L15:
	movq	-56(%rbp), %rax
	movq	-8(%rbp), %rbx
	leave
	.cfi_def_cfa 7, 8
	ret
	.cfi_endproc
.LFE1141:
	.globl	__gxx_personality_v0
	.section	.gcc_except_table._ZNSt7__cxx119to_stringEi,"aG",@progbits,_ZNSt7__cxx119to_stringEi,comdat
.LLSDA1141:
	.byte	0xff
	.byte	0xff
	.byte	0x1
	.uleb128 .LLSDACSE1141-.LLSDACSB1141
.LLSDACSB1141:
	.uleb128 .LEHB0-.LFB1141
	.uleb128 .LEHE0-.LEHB0
	.uleb128 .L16-.LFB1141
	.uleb128 0
	.uleb128 .LEHB1-.LFB1141
	.uleb128 .LEHE1-.LEHB1
	.uleb128 .L17-.LFB1141
	.uleb128 0
	.uleb128 .LEHB2-.LFB1141
	.uleb128 .LEHE2-.LEHB2
	.uleb128 0
	.uleb128 0
.LLSDACSE1141:
	.section	.text._ZNSt7__cxx119to_stringEi,"axG",@progbits,_ZNSt7__cxx119to_stringEi,comdat
	.size	_ZNSt7__cxx119to_stringEi, .-_ZNSt7__cxx119to_stringEi
	.section	.text._ZNSt8__detail14__to_chars_lenIjEEjT_i,"axG",@progbits,_ZNSt8__detail14__to_chars_lenIjEEjT_i,comdat
	.weak	_ZNSt8__detail14__to_chars_lenIjEEjT_i
	.type	_ZNSt8__detail14__to_chars_lenIjEEjT_i, @function
_ZNSt8__detail14__to_chars_lenIjEEjT_i:
.LFB1143:
	.cfi_startproc
	endbr64
	pushq	%rbp
	.cfi_def_cfa_offset 16
	.cfi_offset 6, -16
	movq	%rsp, %rbp
	.cfi_def_cfa_register 6
	movl	%edi, -36(%rbp)
	movl	%esi, -40(%rbp)
	movl	$1, -20(%rbp)
	movl	-40(%rbp), %eax
	imull	%eax, %eax
	movl	%eax, -16(%rbp)
	movl	-40(%rbp), %eax
	movl	-16(%rbp), %edx
	imull	%edx, %eax
	movl	%eax, -12(%rbp)
	movl	-40(%rbp), %eax
	imull	-12(%rbp), %eax
	movl	%eax, %eax
	movq	%rax, -8(%rbp)
.L25:
	movl	-40(%rbp), %eax
	cmpl	%eax, -36(%rbp)
	jnb	.L20
	movl	-20(%rbp), %eax
	jmp	.L21
.L20:
	movl	-36(%rbp), %eax
	cmpl	-16(%rbp), %eax
	jnb	.L22
	movl	-20(%rbp), %eax
	addl	$1, %eax
	jmp	.L21
.L22:
	movl	-36(%rbp), %eax
	cmpl	-12(%rbp), %eax
	jnb	.L23
	movl	-20(%rbp), %eax
	addl	$2, %eax
	jmp	.L21
.L23:
	movl	-36(%rbp), %eax
	cmpq	%rax, -8(%rbp)
	jbe	.L24
	movl	-20(%rbp), %eax
	addl	$3, %eax
	jmp	.L21
.L24:
	movl	-36(%rbp), %eax
	movl	$0, %edx
	divq	-8(%rbp)
	movl	%eax, -36(%rbp)
	addl	$4, -20(%rbp)
	jmp	.L25
.L21:
	popq	%rbp
	.cfi_def_cfa 7, 8
	ret
	.cfi_endproc
.LFE1143:
	.size	_ZNSt8__detail14__to_chars_lenIjEEjT_i, .-_ZNSt8__detail14__to_chars_lenIjEEjT_i
	.local	_ZStL8__ioinit
	.comm	_ZStL8__ioinit,1,1
	.section	.text._ZNSt15_Rb_tree_headerC2Ev,"axG",@progbits,_ZNSt15_Rb_tree_headerC5Ev,comdat
	.align 2
	.weak	_ZNSt15_Rb_tree_headerC2Ev
	.type	_ZNSt15_Rb_tree_headerC2Ev, @function
_ZNSt15_Rb_tree_headerC2Ev:
.LFB1779:
	.cfi_startproc
	endbr64
	pushq	%rbp
	.cfi_def_cfa_offset 16
	.cfi_offset 6, -16
	movq	%rsp, %rbp
	.cfi_def_cfa_register 6
	subq	$16, %rsp
	movq	%rdi, -8(%rbp)
	movq	-8(%rbp), %rax
	movl	$0, (%rax)
	movq	-8(%rbp), %rax
	movq	%rax, %rdi
	call	_ZNSt15_Rb_tree_header8_M_resetEv
	nop
	leave
	.cfi_def_cfa 7, 8
	ret
	.cfi_endproc
.LFE1779:
	.size	_ZNSt15_Rb_tree_headerC2Ev, .-_ZNSt15_Rb_tree_headerC2Ev
	.weak	_ZNSt15_Rb_tree_headerC1Ev
	.set	_ZNSt15_Rb_tree_headerC1Ev,_ZNSt15_Rb_tree_headerC2Ev
	.section	.text._ZNSt15_Rb_tree_header8_M_resetEv,"axG",@progbits,_ZNSt15_Rb_tree_header8_M_resetEv,comdat
	.align 2
	.weak	_ZNSt15_Rb_tree_header8_M_resetEv
	.type	_ZNSt15_Rb_tree_header8_M_resetEv, @function
_ZNSt15_Rb_tree_header8_M_resetEv:
.LFB1785:
	.cfi_startproc
	endbr64
	pushq	%rbp
	.cfi_def_cfa_offset 16
	.cfi_offset 6, -16
	movq	%rsp, %rbp
	.cfi_def_cfa_register 6
	movq	%rdi, -8(%rbp)
	movq	-8(%rbp), %rax
	movq	$0, 8(%rax)
	movq	-8(%rbp), %rdx
	movq	-8(%rbp), %rax
	movq	%rdx, 16(%rax)
	movq	-8(%rbp), %rdx
	movq	-8(%rbp), %rax
	movq	%rdx, 24(%rax)
	movq	-8(%rbp), %rax
	movq	$0, 32(%rax)
	nop
	popq	%rbp
	.cfi_def_cfa 7, 8
	ret
	.cfi_endproc
.LFE1785:
	.size	_ZNSt15_Rb_tree_header8_M_resetEv, .-_ZNSt15_Rb_tree_header8_M_resetEv
	.section	.text._ZSt3minImERKT_S2_S2_,"axG",@progbits,_ZSt3minImERKT_S2_S2_,comdat
	.weak	_ZSt3minImERKT_S2_S2_
	.type	_ZSt3minImERKT_S2_S2_, @function
_ZSt3minImERKT_S2_S2_:
.LFB3091:
	.cfi_startproc
	endbr64
	pushq	%rbp
	.cfi_def_cfa_offset 16
	.cfi_offset 6, -16
	movq	%rsp, %rbp
	.cfi_def_cfa_register 6
	movq	%rdi, -8(%rbp)
	movq	%rsi, -16(%rbp)
	movq	-16(%rbp), %rax
	movq	(%rax), %rdx
	movq	-8(%rbp), %rax
	movq	(%rax), %rax
	cmpq	%rax, %rdx
	jnb	.L29
	movq	-16(%rbp), %rax
	jmp	.L30
.L29:
	movq	-8(%rbp), %rax
.L30:
	popq	%rbp
	.cfi_def_cfa 7, 8
	ret
	.cfi_endproc
.LFE3091:
	.size	_ZSt3minImERKT_S2_S2_, .-_ZSt3minImERKT_S2_S2_
	.section	.rodata
	.type	_ZN6__pstl9execution2v1L3seqE, @object
	.size	_ZN6__pstl9execution2v1L3seqE, 1
_ZN6__pstl9execution2v1L3seqE:
	.zero	1
	.type	_ZN6__pstl9execution2v1L3parE, @object
	.size	_ZN6__pstl9execution2v1L3parE, 1
_ZN6__pstl9execution2v1L3parE:
	.zero	1
	.type	_ZN6__pstl9execution2v1L9par_unseqE, @object
	.size	_ZN6__pstl9execution2v1L9par_unseqE, 1
_ZN6__pstl9execution2v1L9par_unseqE:
	.zero	1
	.type	_ZN6__pstl9execution2v1L5unseqE, @object
	.size	_ZN6__pstl9execution2v1L5unseqE, 1
_ZN6__pstl9execution2v1L5unseqE:
	.zero	1
.LC0:
	.string	"abcdefghijklmnopqrstuvwxyz"
	.text
	.globl	_Z7encryptNSt7__cxx1112basic_stringIcSt11char_traitsIcESaIcEEE
	.type	_Z7encryptNSt7__cxx1112basic_stringIcSt11char_traitsIcESaIcEEE, @function
_Z7encryptNSt7__cxx1112basic_stringIcSt11char_traitsIcESaIcEEE:
.LFB5018:
	.cfi_startproc
	.cfi_personality 0x9b,DW.ref.__gxx_personality_v0
	.cfi_lsda 0x1b,.LLSDA5018
	endbr64
	pushq	%rbp
	.cfi_def_cfa_offset 16
	.cfi_offset 6, -16
	movq	%rsp, %rbp
	.cfi_def_cfa_register 6
	pushq	%rbx
	subq	$120, %rsp
	.cfi_offset 3, -24
	movq	%rdi, -120(%rbp)
	movq	%rsi, -128(%rbp)
	movq	%fs:40, %rax
	movq	%rax, -24(%rbp)
	xorl	%eax, %eax
	leaq	-105(%rbp), %rax
	movq	%rax, %rdi
	call	_ZNSaIcEC1Ev@PLT
	movq	-128(%rbp), %rax
	movq	%rax, %rdi
	call	_ZNSt7__cxx1112basic_stringIcSt11char_traitsIcESaIcEE3endEv@PLT
	movq	%rax, %rbx
	movq	-128(%rbp), %rax
	movq	%rax, %rdi
	call	_ZNSt7__cxx1112basic_stringIcSt11char_traitsIcESaIcEE5beginEv@PLT
	movq	%rax, %rsi
	leaq	-105(%rbp), %rdx
	leaq	-96(%rbp), %rax
	movq	%rdx, %rcx
	movq	%rbx, %rdx
	movq	%rax, %rdi
.LEHB3:
	call	_ZNSt6vectorIcSaIcEEC1IN9__gnu_cxx17__normal_iteratorIPcNSt7__cxx1112basic_stringIcSt11char_traitsIcES0_EEEEvEET_SC_RKS0_
.LEHE3:
	leaq	-105(%rbp), %rax
	movq	%rax, %rdi
	call	_ZNSaIcED1Ev@PLT
	leaq	-105(%rbp), %rax
	movq	%rax, %rdi
	call	_ZNSaIcEC1Ev@PLT
	leaq	-105(%rbp), %rdx
	leaq	-64(%rbp), %rax
	leaq	.LC0(%rip), %rcx
	movq	%rcx, %rsi
	movq	%rax, %rdi
.LEHB4:
	call	_ZNSt7__cxx1112basic_stringIcSt11char_traitsIcESaIcEEC1IS3_EEPKcRKS3_
.LEHE4:
	leaq	-105(%rbp), %rax
	movq	%rax, %rdi
	call	_ZNSaIcED1Ev@PLT
	movl	$0, -104(%rbp)
	jmp	.L32
.L37:
	movl	$0, -100(%rbp)
	jmp	.L33
.L36:
	movl	-104(%rbp), %eax
	movslq	%eax, %rdx
	leaq	-96(%rbp), %rax
	movq	%rdx, %rsi
	movq	%rax, %rdi
	call	_ZNSt6vectorIcSaIcEEixEm
	movzbl	(%rax), %ebx
	movl	-100(%rbp), %eax
	movslq	%eax, %rdx
	leaq	-64(%rbp), %rax
	movq	%rdx, %rsi
	movq	%rax, %rdi
.LEHB5:
	call	_ZNSt7__cxx1112basic_stringIcSt11char_traitsIcESaIcEEixEm@PLT
	movzbl	(%rax), %eax
	cmpb	%al, %bl
	sete	%al
	testb	%al, %al
	je	.L34
	movl	-100(%rbp), %eax
	leal	3(%rax), %edx
	movslq	%edx, %rax
	imulq	$1321528399, %rax, %rax
	shrq	$32, %rax
	sarl	$3, %eax
	movl	%edx, %ecx
	sarl	$31, %ecx
	subl	%ecx, %eax
	imull	$26, %eax, %ecx
	movl	%edx, %eax
	subl	%ecx, %eax
	movslq	%eax, %rdx
	leaq	-64(%rbp), %rax
	movq	%rdx, %rsi
	movq	%rax, %rdi
	call	_ZNSt7__cxx1112basic_stringIcSt11char_traitsIcESaIcEEixEm@PLT
.LEHE5:
	movzbl	(%rax), %ebx
	movl	-104(%rbp), %eax
	movslq	%eax, %rdx
	leaq	-96(%rbp), %rax
	movq	%rdx, %rsi
	movq	%rax, %rdi
	call	_ZNSt6vectorIcSaIcEEixEm
	movb	%bl, (%rax)
	jmp	.L35
.L34:
	addl	$1, -100(%rbp)
.L33:
	leaq	-64(%rbp), %rax
	movq	%rax, %rdi
	call	_ZNKSt7__cxx1112basic_stringIcSt11char_traitsIcESaIcEE6lengthEv@PLT
	cmpl	%eax, -100(%rbp)
	setl	%al
	testb	%al, %al
	jne	.L36
.L35:
	addl	$1, -104(%rbp)
.L32:
	movq	-128(%rbp), %rax
	movq	%rax, %rdi
	call	_ZNKSt7__cxx1112basic_stringIcSt11char_traitsIcESaIcEE6lengthEv@PLT
	cmpl	%eax, -104(%rbp)
	setl	%al
	testb	%al, %al
	jne	.L37
	leaq	-105(%rbp), %rax
	movq	%rax, %rdi
	call	_ZNSaIcEC1Ev@PLT
	leaq	-96(%rbp), %rax
	movq	%rax, %rdi
	call	_ZNSt6vectorIcSaIcEE3endEv
	movq	%rax, %rbx
	leaq	-96(%rbp), %rax
	movq	%rax, %rdi
	call	_ZNSt6vectorIcSaIcEE5beginEv
	movq	%rax, %rsi
	leaq	-105(%rbp), %rdx
	movq	-120(%rbp), %rax
	movq	%rdx, %rcx
	movq	%rbx, %rdx
	movq	%rax, %rdi
.LEHB6:
	call	_ZNSt7__cxx1112basic_stringIcSt11char_traitsIcESaIcEEC1IN9__gnu_cxx17__normal_iteratorIPcSt6vectorIcS3_EEEvEET_SC_RKS3_
.LEHE6:
	leaq	-105(%rbp), %rax
	movq	%rax, %rdi
	call	_ZNSaIcED1Ev@PLT
	nop
	leaq	-64(%rbp), %rax
	movq	%rax, %rdi
	call	_ZNSt7__cxx1112basic_stringIcSt11char_traitsIcESaIcEED1Ev@PLT
	leaq	-96(%rbp), %rax
	movq	%rax, %rdi
	call	_ZNSt6vectorIcSaIcEED1Ev
	nop
	movq	-24(%rbp), %rax
	subq	%fs:40, %rax
	je	.L44
	jmp	.L49
.L45:
	endbr64
	movq	%rax, %rbx
	leaq	-105(%rbp), %rax
	movq	%rax, %rdi
	call	_ZNSaIcED1Ev@PLT
	movq	%rbx, %rax
	movq	%rax, %rdi
.LEHB7:
	call	_Unwind_Resume@PLT
.L46:
	endbr64
	movq	%rax, %rbx
	leaq	-105(%rbp), %rax
	movq	%rax, %rdi
	call	_ZNSaIcED1Ev@PLT
	jmp	.L41
.L48:
	endbr64
	movq	%rax, %rbx
	leaq	-105(%rbp), %rax
	movq	%rax, %rdi
	call	_ZNSaIcED1Ev@PLT
	jmp	.L43
.L47:
	endbr64
	movq	%rax, %rbx
.L43:
	leaq	-64(%rbp), %rax
	movq	%rax, %rdi
	call	_ZNSt7__cxx1112basic_stringIcSt11char_traitsIcESaIcEED1Ev@PLT
.L41:
	leaq	-96(%rbp), %rax
	movq	%rax, %rdi
	call	_ZNSt6vectorIcSaIcEED1Ev
	movq	%rbx, %rax
	movq	%rax, %rdi
	call	_Unwind_Resume@PLT
.LEHE7:
.L49:
	call	__stack_chk_fail@PLT
.L44:
	movq	-120(%rbp), %rax
	movq	-8(%rbp), %rbx
	leave
	.cfi_def_cfa 7, 8
	ret
	.cfi_endproc
.LFE5018:
	.section	.gcc_except_table,"a",@progbits
.LLSDA5018:
	.byte	0xff
	.byte	0xff
	.byte	0x1
	.uleb128 .LLSDACSE5018-.LLSDACSB5018
.LLSDACSB5018:
	.uleb128 .LEHB3-.LFB5018
	.uleb128 .LEHE3-.LEHB3
	.uleb128 .L45-.LFB5018
	.uleb128 0
	.uleb128 .LEHB4-.LFB5018
	.uleb128 .LEHE4-.LEHB4
	.uleb128 .L46-.LFB5018
	.uleb128 0
	.uleb128 .LEHB5-.LFB5018
	.uleb128 .LEHE5-.LEHB5
	.uleb128 .L47-.LFB5018
	.uleb128 0
	.uleb128 .LEHB6-.LFB5018
	.uleb128 .LEHE6-.LEHB6
	.uleb128 .L48-.LFB5018
	.uleb128 0
	.uleb128 .LEHB7-.LFB5018
	.uleb128 .LEHE7-.LEHB7
	.uleb128 0
	.uleb128 0
.LLSDACSE5018:
	.text
	.size	_Z7encryptNSt7__cxx1112basic_stringIcSt11char_traitsIcESaIcEEE, .-_Z7encryptNSt7__cxx1112basic_stringIcSt11char_traitsIcESaIcEEE
	.globl	_Z7decryptNSt7__cxx1112basic_stringIcSt11char_traitsIcESaIcEEE
	.type	_Z7decryptNSt7__cxx1112basic_stringIcSt11char_traitsIcESaIcEEE, @function
_Z7decryptNSt7__cxx1112basic_stringIcSt11char_traitsIcESaIcEEE:
.LFB5019:
	.cfi_startproc
	.cfi_personality 0x9b,DW.ref.__gxx_personality_v0
	.cfi_lsda 0x1b,.LLSDA5019
	endbr64
	pushq	%rbp
	.cfi_def_cfa_offset 16
	.cfi_offset 6, -16
	movq	%rsp, %rbp
	.cfi_def_cfa_register 6
	pushq	%rbx
	subq	$120, %rsp
	.cfi_offset 3, -24
	movq	%rdi, -120(%rbp)
	movq	%rsi, -128(%rbp)
	movq	%fs:40, %rax
	movq	%rax, -24(%rbp)
	xorl	%eax, %eax
	leaq	-105(%rbp), %rax
	movq	%rax, %rdi
	call	_ZNSaIcEC1Ev@PLT
	movq	-128(%rbp), %rax
	movq	%rax, %rdi
	call	_ZNSt7__cxx1112basic_stringIcSt11char_traitsIcESaIcEE3endEv@PLT
	movq	%rax, %rbx
	movq	-128(%rbp), %rax
	movq	%rax, %rdi
	call	_ZNSt7__cxx1112basic_stringIcSt11char_traitsIcESaIcEE5beginEv@PLT
	movq	%rax, %rsi
	leaq	-105(%rbp), %rdx
	leaq	-96(%rbp), %rax
	movq	%rdx, %rcx
	movq	%rbx, %rdx
	movq	%rax, %rdi
.LEHB8:
	call	_ZNSt6vectorIcSaIcEEC1IN9__gnu_cxx17__normal_iteratorIPcNSt7__cxx1112basic_stringIcSt11char_traitsIcES0_EEEEvEET_SC_RKS0_
.LEHE8:
	leaq	-105(%rbp), %rax
	movq	%rax, %rdi
	call	_ZNSaIcED1Ev@PLT
	leaq	-105(%rbp), %rax
	movq	%rax, %rdi
	call	_ZNSaIcEC1Ev@PLT
	leaq	-105(%rbp), %rdx
	leaq	-64(%rbp), %rax
	leaq	.LC0(%rip), %rcx
	movq	%rcx, %rsi
	movq	%rax, %rdi
.LEHB9:
	call	_ZNSt7__cxx1112basic_stringIcSt11char_traitsIcESaIcEEC1IS3_EEPKcRKS3_
.LEHE9:
	leaq	-105(%rbp), %rax
	movq	%rax, %rdi
	call	_ZNSaIcED1Ev@PLT
	movl	$0, -104(%rbp)
	jmp	.L51
.L56:
	movl	$0, -100(%rbp)
	jmp	.L52
.L55:
	movl	-104(%rbp), %eax
	movslq	%eax, %rdx
	leaq	-96(%rbp), %rax
	movq	%rdx, %rsi
	movq	%rax, %rdi
	call	_ZNSt6vectorIcSaIcEEixEm
	movzbl	(%rax), %ebx
	movl	-100(%rbp), %eax
	movslq	%eax, %rdx
	leaq	-64(%rbp), %rax
	movq	%rdx, %rsi
	movq	%rax, %rdi
.LEHB10:
	call	_ZNSt7__cxx1112basic_stringIcSt11char_traitsIcESaIcEEixEm@PLT
	movzbl	(%rax), %eax
	cmpb	%al, %bl
	sete	%al
	testb	%al, %al
	je	.L53
	movl	-100(%rbp), %eax
	leal	-3(%rax), %edx
	movslq	%edx, %rax
	imulq	$1321528399, %rax, %rax
	shrq	$32, %rax
	sarl	$3, %eax
	movl	%edx, %ecx
	sarl	$31, %ecx
	subl	%ecx, %eax
	imull	$26, %eax, %ecx
	movl	%edx, %eax
	subl	%ecx, %eax
	movslq	%eax, %rdx
	leaq	-64(%rbp), %rax
	movq	%rdx, %rsi
	movq	%rax, %rdi
	call	_ZNSt7__cxx1112basic_stringIcSt11char_traitsIcESaIcEEixEm@PLT
.LEHE10:
	movzbl	(%rax), %ebx
	movl	-104(%rbp), %eax
	movslq	%eax, %rdx
	leaq	-96(%rbp), %rax
	movq	%rdx, %rsi
	movq	%rax, %rdi
	call	_ZNSt6vectorIcSaIcEEixEm
	movb	%bl, (%rax)
	jmp	.L54
.L53:
	addl	$1, -100(%rbp)
.L52:
	leaq	-64(%rbp), %rax
	movq	%rax, %rdi
	call	_ZNKSt7__cxx1112basic_stringIcSt11char_traitsIcESaIcEE6lengthEv@PLT
	cmpl	%eax, -100(%rbp)
	setl	%al
	testb	%al, %al
	jne	.L55
.L54:
	addl	$1, -104(%rbp)
.L51:
	movq	-128(%rbp), %rax
	movq	%rax, %rdi
	call	_ZNKSt7__cxx1112basic_stringIcSt11char_traitsIcESaIcEE6lengthEv@PLT
	cmpl	%eax, -104(%rbp)
	setl	%al
	testb	%al, %al
	jne	.L56
	leaq	-105(%rbp), %rax
	movq	%rax, %rdi
	call	_ZNSaIcEC1Ev@PLT
	leaq	-96(%rbp), %rax
	movq	%rax, %rdi
	call	_ZNSt6vectorIcSaIcEE3endEv
	movq	%rax, %rbx
	leaq	-96(%rbp), %rax
	movq	%rax, %rdi
	call	_ZNSt6vectorIcSaIcEE5beginEv
	movq	%rax, %rsi
	leaq	-105(%rbp), %rdx
	movq	-120(%rbp), %rax
	movq	%rdx, %rcx
	movq	%rbx, %rdx
	movq	%rax, %rdi
.LEHB11:
	call	_ZNSt7__cxx1112basic_stringIcSt11char_traitsIcESaIcEEC1IN9__gnu_cxx17__normal_iteratorIPcSt6vectorIcS3_EEEvEET_SC_RKS3_
.LEHE11:
	leaq	-105(%rbp), %rax
	movq	%rax, %rdi
	call	_ZNSaIcED1Ev@PLT
	nop
	leaq	-64(%rbp), %rax
	movq	%rax, %rdi
	call	_ZNSt7__cxx1112basic_stringIcSt11char_traitsIcESaIcEED1Ev@PLT
	leaq	-96(%rbp), %rax
	movq	%rax, %rdi
	call	_ZNSt6vectorIcSaIcEED1Ev
	nop
	movq	-24(%rbp), %rax
	subq	%fs:40, %rax
	je	.L63
	jmp	.L68
.L64:
	endbr64
	movq	%rax, %rbx
	leaq	-105(%rbp), %rax
	movq	%rax, %rdi
	call	_ZNSaIcED1Ev@PLT
	movq	%rbx, %rax
	movq	%rax, %rdi
.LEHB12:
	call	_Unwind_Resume@PLT
.L65:
	endbr64
	movq	%rax, %rbx
	leaq	-105(%rbp), %rax
	movq	%rax, %rdi
	call	_ZNSaIcED1Ev@PLT
	jmp	.L60
.L67:
	endbr64
	movq	%rax, %rbx
	leaq	-105(%rbp), %rax
	movq	%rax, %rdi
	call	_ZNSaIcED1Ev@PLT
	jmp	.L62
.L66:
	endbr64
	movq	%rax, %rbx
.L62:
	leaq	-64(%rbp), %rax
	movq	%rax, %rdi
	call	_ZNSt7__cxx1112basic_stringIcSt11char_traitsIcESaIcEED1Ev@PLT
.L60:
	leaq	-96(%rbp), %rax
	movq	%rax, %rdi
	call	_ZNSt6vectorIcSaIcEED1Ev
	movq	%rbx, %rax
	movq	%rax, %rdi
	call	_Unwind_Resume@PLT
.LEHE12:
.L68:
	call	__stack_chk_fail@PLT
.L63:
	movq	-120(%rbp), %rax
	movq	-8(%rbp), %rbx
	leave
	.cfi_def_cfa 7, 8
	ret
	.cfi_endproc
.LFE5019:
	.section	.gcc_except_table
.LLSDA5019:
	.byte	0xff
	.byte	0xff
	.byte	0x1
	.uleb128 .LLSDACSE5019-.LLSDACSB5019
.LLSDACSB5019:
	.uleb128 .LEHB8-.LFB5019
	.uleb128 .LEHE8-.LEHB8
	.uleb128 .L64-.LFB5019
	.uleb128 0
	.uleb128 .LEHB9-.LFB5019
	.uleb128 .LEHE9-.LEHB9
	.uleb128 .L65-.LFB5019
	.uleb128 0
	.uleb128 .LEHB10-.LFB5019
	.uleb128 .LEHE10-.LEHB10
	.uleb128 .L66-.LFB5019
	.uleb128 0
	.uleb128 .LEHB11-.LFB5019
	.uleb128 .LEHE11-.LEHB11
	.uleb128 .L67-.LFB5019
	.uleb128 0
	.uleb128 .LEHB12-.LFB5019
	.uleb128 .LEHE12-.LEHB12
	.uleb128 0
	.uleb128 0
.LLSDACSE5019:
	.text
	.size	_Z7decryptNSt7__cxx1112basic_stringIcSt11char_traitsIcESaIcEEE, .-_Z7decryptNSt7__cxx1112basic_stringIcSt11char_traitsIcESaIcEEE
	.section	.text._ZN11Kredit_Card15set_card_numberENSt7__cxx1112basic_stringIcSt11char_traitsIcESaIcEEE,"axG",@progbits,_ZN11Kredit_Card15set_card_numberENSt7__cxx1112basic_stringIcSt11char_traitsIcESaIcEEE,comdat
	.align 2
	.weak	_ZN11Kredit_Card15set_card_numberENSt7__cxx1112basic_stringIcSt11char_traitsIcESaIcEEE
	.type	_ZN11Kredit_Card15set_card_numberENSt7__cxx1112basic_stringIcSt11char_traitsIcESaIcEEE, @function
_ZN11Kredit_Card15set_card_numberENSt7__cxx1112basic_stringIcSt11char_traitsIcESaIcEEE:
.LFB5020:
	.cfi_startproc
	endbr64
	pushq	%rbp
	.cfi_def_cfa_offset 16
	.cfi_offset 6, -16
	movq	%rsp, %rbp
	.cfi_def_cfa_register 6
	subq	$16, %rsp
	movq	%rdi, -8(%rbp)
	movq	%rsi, -16(%rbp)
	movq	-8(%rbp), %rax
	movq	-16(%rbp), %rdx
	movq	%rdx, %rsi
	movq	%rax, %rdi
	call	_ZNSt7__cxx1112basic_stringIcSt11char_traitsIcESaIcEEaSERKS4_@PLT
	nop
	leave
	.cfi_def_cfa 7, 8
	ret
	.cfi_endproc
.LFE5020:
	.size	_ZN11Kredit_Card15set_card_numberENSt7__cxx1112basic_stringIcSt11char_traitsIcESaIcEEE, .-_ZN11Kredit_Card15set_card_numberENSt7__cxx1112basic_stringIcSt11char_traitsIcESaIcEEE
	.section	.text._ZN11Kredit_Card15get_card_numberB5cxx11Ev,"axG",@progbits,_ZN11Kredit_Card15get_card_numberB5cxx11Ev,comdat
	.align 2
	.weak	_ZN11Kredit_Card15get_card_numberB5cxx11Ev
	.type	_ZN11Kredit_Card15get_card_numberB5cxx11Ev, @function
_ZN11Kredit_Card15get_card_numberB5cxx11Ev:
.LFB5021:
	.cfi_startproc
	endbr64
	pushq	%rbp
	.cfi_def_cfa_offset 16
	.cfi_offset 6, -16
	movq	%rsp, %rbp
	.cfi_def_cfa_register 6
	subq	$16, %rsp
	movq	%rdi, -8(%rbp)
	movq	%rsi, -16(%rbp)
	movq	-16(%rbp), %rdx
	movq	-8(%rbp), %rax
	movq	%rdx, %rsi
	movq	%rax, %rdi
	call	_ZNSt7__cxx1112basic_stringIcSt11char_traitsIcESaIcEEC1ERKS4_@PLT
	movq	-8(%rbp), %rax
	leave
	.cfi_def_cfa 7, 8
	ret
	.cfi_endproc
.LFE5021:
	.size	_ZN11Kredit_Card15get_card_numberB5cxx11Ev, .-_ZN11Kredit_Card15get_card_numberB5cxx11Ev
	.section	.text._ZN11Kredit_Card13set_card_nameENSt7__cxx1112basic_stringIcSt11char_traitsIcESaIcEEE,"axG",@progbits,_ZN11Kredit_Card13set_card_nameENSt7__cxx1112basic_stringIcSt11char_traitsIcESaIcEEE,comdat
	.align 2
	.weak	_ZN11Kredit_Card13set_card_nameENSt7__cxx1112basic_stringIcSt11char_traitsIcESaIcEEE
	.type	_ZN11Kredit_Card13set_card_nameENSt7__cxx1112basic_stringIcSt11char_traitsIcESaIcEEE, @function
_ZN11Kredit_Card13set_card_nameENSt7__cxx1112basic_stringIcSt11char_traitsIcESaIcEEE:
.LFB5022:
	.cfi_startproc
	endbr64
	pushq	%rbp
	.cfi_def_cfa_offset 16
	.cfi_offset 6, -16
	movq	%rsp, %rbp
	.cfi_def_cfa_register 6
	subq	$16, %rsp
	movq	%rdi, -8(%rbp)
	movq	%rsi, -16(%rbp)
	movq	-8(%rbp), %rax
	leaq	32(%rax), %rdx
	movq	-16(%rbp), %rax
	movq	%rax, %rsi
	movq	%rdx, %rdi
	call	_ZNSt7__cxx1112basic_stringIcSt11char_traitsIcESaIcEEaSERKS4_@PLT
	nop
	leave
	.cfi_def_cfa 7, 8
	ret
	.cfi_endproc
.LFE5022:
	.size	_ZN11Kredit_Card13set_card_nameENSt7__cxx1112basic_stringIcSt11char_traitsIcESaIcEEE, .-_ZN11Kredit_Card13set_card_nameENSt7__cxx1112basic_stringIcSt11char_traitsIcESaIcEEE
	.section	.text._ZN11Kredit_Card13get_card_nameB5cxx11Ev,"axG",@progbits,_ZN11Kredit_Card13get_card_nameB5cxx11Ev,comdat
	.align 2
	.weak	_ZN11Kredit_Card13get_card_nameB5cxx11Ev
	.type	_ZN11Kredit_Card13get_card_nameB5cxx11Ev, @function
_ZN11Kredit_Card13get_card_nameB5cxx11Ev:
.LFB5023:
	.cfi_startproc
	endbr64
	pushq	%rbp
	.cfi_def_cfa_offset 16
	.cfi_offset 6, -16
	movq	%rsp, %rbp
	.cfi_def_cfa_register 6
	subq	$16, %rsp
	movq	%rdi, -8(%rbp)
	movq	%rsi, -16(%rbp)
	movq	-16(%rbp), %rax
	leaq	32(%rax), %rdx
	movq	-8(%rbp), %rax
	movq	%rdx, %rsi
	movq	%rax, %rdi
	call	_ZNSt7__cxx1112basic_stringIcSt11char_traitsIcESaIcEEC1ERKS4_@PLT
	movq	-8(%rbp), %rax
	leave
	.cfi_def_cfa 7, 8
	ret
	.cfi_endproc
.LFE5023:
	.size	_ZN11Kredit_Card13get_card_nameB5cxx11Ev, .-_ZN11Kredit_Card13get_card_nameB5cxx11Ev
	.section	.text._ZN11Kredit_Card16set_card_surnameENSt7__cxx1112basic_stringIcSt11char_traitsIcESaIcEEE,"axG",@progbits,_ZN11Kredit_Card16set_card_surnameENSt7__cxx1112basic_stringIcSt11char_traitsIcESaIcEEE,comdat
	.align 2
	.weak	_ZN11Kredit_Card16set_card_surnameENSt7__cxx1112basic_stringIcSt11char_traitsIcESaIcEEE
	.type	_ZN11Kredit_Card16set_card_surnameENSt7__cxx1112basic_stringIcSt11char_traitsIcESaIcEEE, @function
_ZN11Kredit_Card16set_card_surnameENSt7__cxx1112basic_stringIcSt11char_traitsIcESaIcEEE:
.LFB5024:
	.cfi_startproc
	endbr64
	pushq	%rbp
	.cfi_def_cfa_offset 16
	.cfi_offset 6, -16
	movq	%rsp, %rbp
	.cfi_def_cfa_register 6
	subq	$16, %rsp
	movq	%rdi, -8(%rbp)
	movq	%rsi, -16(%rbp)
	movq	-8(%rbp), %rax
	leaq	64(%rax), %rdx
	movq	-16(%rbp), %rax
	movq	%rax, %rsi
	movq	%rdx, %rdi
	call	_ZNSt7__cxx1112basic_stringIcSt11char_traitsIcESaIcEEaSERKS4_@PLT
	nop
	leave
	.cfi_def_cfa 7, 8
	ret
	.cfi_endproc
.LFE5024:
	.size	_ZN11Kredit_Card16set_card_surnameENSt7__cxx1112basic_stringIcSt11char_traitsIcESaIcEEE, .-_ZN11Kredit_Card16set_card_surnameENSt7__cxx1112basic_stringIcSt11char_traitsIcESaIcEEE
	.section	.text._ZN11Kredit_Card16get_card_surnameB5cxx11Ev,"axG",@progbits,_ZN11Kredit_Card16get_card_surnameB5cxx11Ev,comdat
	.align 2
	.weak	_ZN11Kredit_Card16get_card_surnameB5cxx11Ev
	.type	_ZN11Kredit_Card16get_card_surnameB5cxx11Ev, @function
_ZN11Kredit_Card16get_card_surnameB5cxx11Ev:
.LFB5025:
	.cfi_startproc
	endbr64
	pushq	%rbp
	.cfi_def_cfa_offset 16
	.cfi_offset 6, -16
	movq	%rsp, %rbp
	.cfi_def_cfa_register 6
	subq	$16, %rsp
	movq	%rdi, -8(%rbp)
	movq	%rsi, -16(%rbp)
	movq	-16(%rbp), %rax
	leaq	64(%rax), %rdx
	movq	-8(%rbp), %rax
	movq	%rdx, %rsi
	movq	%rax, %rdi
	call	_ZNSt7__cxx1112basic_stringIcSt11char_traitsIcESaIcEEC1ERKS4_@PLT
	movq	-8(%rbp), %rax
	leave
	.cfi_def_cfa 7, 8
	ret
	.cfi_endproc
.LFE5025:
	.size	_ZN11Kredit_Card16get_card_surnameB5cxx11Ev, .-_ZN11Kredit_Card16get_card_surnameB5cxx11Ev
	.section	.text._ZN11Kredit_Card13set_card_dateENSt7__cxx1112basic_stringIcSt11char_traitsIcESaIcEEE,"axG",@progbits,_ZN11Kredit_Card13set_card_dateENSt7__cxx1112basic_stringIcSt11char_traitsIcESaIcEEE,comdat
	.align 2
	.weak	_ZN11Kredit_Card13set_card_dateENSt7__cxx1112basic_stringIcSt11char_traitsIcESaIcEEE
	.type	_ZN11Kredit_Card13set_card_dateENSt7__cxx1112basic_stringIcSt11char_traitsIcESaIcEEE, @function
_ZN11Kredit_Card13set_card_dateENSt7__cxx1112basic_stringIcSt11char_traitsIcESaIcEEE:
.LFB5026:
	.cfi_startproc
	endbr64
	pushq	%rbp
	.cfi_def_cfa_offset 16
	.cfi_offset 6, -16
	movq	%rsp, %rbp
	.cfi_def_cfa_register 6
	subq	$16, %rsp
	movq	%rdi, -8(%rbp)
	movq	%rsi, -16(%rbp)
	movq	-8(%rbp), %rax
	leaq	96(%rax), %rdx
	movq	-16(%rbp), %rax
	movq	%rax, %rsi
	movq	%rdx, %rdi
	call	_ZNSt7__cxx1112basic_stringIcSt11char_traitsIcESaIcEEaSERKS4_@PLT
	nop
	leave
	.cfi_def_cfa 7, 8
	ret
	.cfi_endproc
.LFE5026:
	.size	_ZN11Kredit_Card13set_card_dateENSt7__cxx1112basic_stringIcSt11char_traitsIcESaIcEEE, .-_ZN11Kredit_Card13set_card_dateENSt7__cxx1112basic_stringIcSt11char_traitsIcESaIcEEE
	.section	.text._ZN11Kredit_Card13get_card_dateB5cxx11Ev,"axG",@progbits,_ZN11Kredit_Card13get_card_dateB5cxx11Ev,comdat
	.align 2
	.weak	_ZN11Kredit_Card13get_card_dateB5cxx11Ev
	.type	_ZN11Kredit_Card13get_card_dateB5cxx11Ev, @function
_ZN11Kredit_Card13get_card_dateB5cxx11Ev:
.LFB5027:
	.cfi_startproc
	endbr64
	pushq	%rbp
	.cfi_def_cfa_offset 16
	.cfi_offset 6, -16
	movq	%rsp, %rbp
	.cfi_def_cfa_register 6
	subq	$16, %rsp
	movq	%rdi, -8(%rbp)
	movq	%rsi, -16(%rbp)
	movq	-16(%rbp), %rax
	leaq	96(%rax), %rdx
	movq	-8(%rbp), %rax
	movq	%rdx, %rsi
	movq	%rax, %rdi
	call	_ZNSt7__cxx1112basic_stringIcSt11char_traitsIcESaIcEEC1ERKS4_@PLT
	movq	-8(%rbp), %rax
	leave
	.cfi_def_cfa 7, 8
	ret
	.cfi_endproc
.LFE5027:
	.size	_ZN11Kredit_Card13get_card_dateB5cxx11Ev, .-_ZN11Kredit_Card13get_card_dateB5cxx11Ev
	.section	.text._ZN11Kredit_Card12set_card_cvvENSt7__cxx1112basic_stringIcSt11char_traitsIcESaIcEEE,"axG",@progbits,_ZN11Kredit_Card12set_card_cvvENSt7__cxx1112basic_stringIcSt11char_traitsIcESaIcEEE,comdat
	.align 2
	.weak	_ZN11Kredit_Card12set_card_cvvENSt7__cxx1112basic_stringIcSt11char_traitsIcESaIcEEE
	.type	_ZN11Kredit_Card12set_card_cvvENSt7__cxx1112basic_stringIcSt11char_traitsIcESaIcEEE, @function
_ZN11Kredit_Card12set_card_cvvENSt7__cxx1112basic_stringIcSt11char_traitsIcESaIcEEE:
.LFB5028:
	.cfi_startproc
	endbr64
	pushq	%rbp
	.cfi_def_cfa_offset 16
	.cfi_offset 6, -16
	movq	%rsp, %rbp
	.cfi_def_cfa_register 6
	subq	$16, %rsp
	movq	%rdi, -8(%rbp)
	movq	%rsi, -16(%rbp)
	movq	-8(%rbp), %rax
	leaq	128(%rax), %rdx
	movq	-16(%rbp), %rax
	movq	%rax, %rsi
	movq	%rdx, %rdi
	call	_ZNSt7__cxx1112basic_stringIcSt11char_traitsIcESaIcEEaSERKS4_@PLT
	nop
	leave
	.cfi_def_cfa 7, 8
	ret
	.cfi_endproc
.LFE5028:
	.size	_ZN11Kredit_Card12set_card_cvvENSt7__cxx1112basic_stringIcSt11char_traitsIcESaIcEEE, .-_ZN11Kredit_Card12set_card_cvvENSt7__cxx1112basic_stringIcSt11char_traitsIcESaIcEEE
	.section	.text._ZN11Kredit_Card12get_card_cvvB5cxx11Ev,"axG",@progbits,_ZN11Kredit_Card12get_card_cvvB5cxx11Ev,comdat
	.align 2
	.weak	_ZN11Kredit_Card12get_card_cvvB5cxx11Ev
	.type	_ZN11Kredit_Card12get_card_cvvB5cxx11Ev, @function
_ZN11Kredit_Card12get_card_cvvB5cxx11Ev:
.LFB5029:
	.cfi_startproc
	endbr64
	pushq	%rbp
	.cfi_def_cfa_offset 16
	.cfi_offset 6, -16
	movq	%rsp, %rbp
	.cfi_def_cfa_register 6
	subq	$16, %rsp
	movq	%rdi, -8(%rbp)
	movq	%rsi, -16(%rbp)
	movq	-16(%rbp), %rax
	leaq	128(%rax), %rdx
	movq	-8(%rbp), %rax
	movq	%rdx, %rsi
	movq	%rax, %rdi
	call	_ZNSt7__cxx1112basic_stringIcSt11char_traitsIcESaIcEEC1ERKS4_@PLT
	movq	-8(%rbp), %rax
	leave
	.cfi_def_cfa 7, 8
	ret
	.cfi_endproc
.LFE5029:
	.size	_ZN11Kredit_Card12get_card_cvvB5cxx11Ev, .-_ZN11Kredit_Card12get_card_cvvB5cxx11Ev
	.section	.text._ZN11Kredit_Card17set_card_passwordENSt7__cxx1112basic_stringIcSt11char_traitsIcESaIcEEE,"axG",@progbits,_ZN11Kredit_Card17set_card_passwordENSt7__cxx1112basic_stringIcSt11char_traitsIcESaIcEEE,comdat
	.align 2
	.weak	_ZN11Kredit_Card17set_card_passwordENSt7__cxx1112basic_stringIcSt11char_traitsIcESaIcEEE
	.type	_ZN11Kredit_Card17set_card_passwordENSt7__cxx1112basic_stringIcSt11char_traitsIcESaIcEEE, @function
_ZN11Kredit_Card17set_card_passwordENSt7__cxx1112basic_stringIcSt11char_traitsIcESaIcEEE:
.LFB5030:
	.cfi_startproc
	endbr64
	pushq	%rbp
	.cfi_def_cfa_offset 16
	.cfi_offset 6, -16
	movq	%rsp, %rbp
	.cfi_def_cfa_register 6
	subq	$16, %rsp
	movq	%rdi, -8(%rbp)
	movq	%rsi, -16(%rbp)
	movq	-8(%rbp), %rax
	leaq	160(%rax), %rdx
	movq	-16(%rbp), %rax
	movq	%rax, %rsi
	movq	%rdx, %rdi
	call	_ZNSt7__cxx1112basic_stringIcSt11char_traitsIcESaIcEEaSERKS4_@PLT
	nop
	leave
	.cfi_def_cfa 7, 8
	ret
	.cfi_endproc
.LFE5030:
	.size	_ZN11Kredit_Card17set_card_passwordENSt7__cxx1112basic_stringIcSt11char_traitsIcESaIcEEE, .-_ZN11Kredit_Card17set_card_passwordENSt7__cxx1112basic_stringIcSt11char_traitsIcESaIcEEE
	.section	.rodata
.LC1:
	.string	""
	.section	.text._ZN11Kredit_CardC2Ev,"axG",@progbits,_ZN11Kredit_CardC5Ev,comdat
	.align 2
	.weak	_ZN11Kredit_CardC2Ev
	.type	_ZN11Kredit_CardC2Ev, @function
_ZN11Kredit_CardC2Ev:
.LFB5034:
	.cfi_startproc
	.cfi_personality 0x9b,DW.ref.__gxx_personality_v0
	.cfi_lsda 0x1b,.LLSDA5034
	endbr64
	pushq	%rbp
	.cfi_def_cfa_offset 16
	.cfi_offset 6, -16
	movq	%rsp, %rbp
	.cfi_def_cfa_register 6
	pushq	%rbx
	subq	$24, %rsp
	.cfi_offset 3, -24
	movq	%rdi, -24(%rbp)
	movq	-24(%rbp), %rax
	movq	%rax, %rdi
	call	_ZNSt7__cxx1112basic_stringIcSt11char_traitsIcESaIcEEC1Ev@PLT
	movq	-24(%rbp), %rax
	addq	$32, %rax
	movq	%rax, %rdi
	call	_ZNSt7__cxx1112basic_stringIcSt11char_traitsIcESaIcEEC1Ev@PLT
	movq	-24(%rbp), %rax
	addq	$64, %rax
	movq	%rax, %rdi
	call	_ZNSt7__cxx1112basic_stringIcSt11char_traitsIcESaIcEEC1Ev@PLT
	movq	-24(%rbp), %rax
	addq	$96, %rax
	movq	%rax, %rdi
	call	_ZNSt7__cxx1112basic_stringIcSt11char_traitsIcESaIcEEC1Ev@PLT
	movq	-24(%rbp), %rax
	subq	$-128, %rax
	movq	%rax, %rdi
	call	_ZNSt7__cxx1112basic_stringIcSt11char_traitsIcESaIcEEC1Ev@PLT
	movq	-24(%rbp), %rax
	addq	$160, %rax
	movq	%rax, %rdi
	call	_ZNSt7__cxx1112basic_stringIcSt11char_traitsIcESaIcEEC1Ev@PLT
	movq	-24(%rbp), %rax
	leaq	.LC1(%rip), %rdx
	movq	%rdx, %rsi
	movq	%rax, %rdi
.LEHB13:
	call	_ZNSt7__cxx1112basic_stringIcSt11char_traitsIcESaIcEEaSEPKc@PLT
	movq	-24(%rbp), %rax
	addq	$32, %rax
	leaq	.LC1(%rip), %rdx
	movq	%rdx, %rsi
	movq	%rax, %rdi
	call	_ZNSt7__cxx1112basic_stringIcSt11char_traitsIcESaIcEEaSEPKc@PLT
	movq	-24(%rbp), %rax
	addq	$64, %rax
	leaq	.LC1(%rip), %rdx
	movq	%rdx, %rsi
	movq	%rax, %rdi
	call	_ZNSt7__cxx1112basic_stringIcSt11char_traitsIcESaIcEEaSEPKc@PLT
	movq	-24(%rbp), %rax
	addq	$96, %rax
	leaq	.LC1(%rip), %rdx
	movq	%rdx, %rsi
	movq	%rax, %rdi
	call	_ZNSt7__cxx1112basic_stringIcSt11char_traitsIcESaIcEEaSEPKc@PLT
	movq	-24(%rbp), %rax
	subq	$-128, %rax
	leaq	.LC1(%rip), %rdx
	movq	%rdx, %rsi
	movq	%rax, %rdi
	call	_ZNSt7__cxx1112basic_stringIcSt11char_traitsIcESaIcEEaSEPKc@PLT
.LEHE13:
	jmp	.L88
.L87:
	endbr64
	movq	%rax, %rbx
	movq	-24(%rbp), %rax
	addq	$160, %rax
	movq	%rax, %rdi
	call	_ZNSt7__cxx1112basic_stringIcSt11char_traitsIcESaIcEED1Ev@PLT
	movq	-24(%rbp), %rax
	subq	$-128, %rax
	movq	%rax, %rdi
	call	_ZNSt7__cxx1112basic_stringIcSt11char_traitsIcESaIcEED1Ev@PLT
	movq	-24(%rbp), %rax
	addq	$96, %rax
	movq	%rax, %rdi
	call	_ZNSt7__cxx1112basic_stringIcSt11char_traitsIcESaIcEED1Ev@PLT
	movq	-24(%rbp), %rax
	addq	$64, %rax
	movq	%rax, %rdi
	call	_ZNSt7__cxx1112basic_stringIcSt11char_traitsIcESaIcEED1Ev@PLT
	movq	-24(%rbp), %rax
	addq	$32, %rax
	movq	%rax, %rdi
	call	_ZNSt7__cxx1112basic_stringIcSt11char_traitsIcESaIcEED1Ev@PLT
	movq	-24(%rbp), %rax
	movq	%rax, %rdi
	call	_ZNSt7__cxx1112basic_stringIcSt11char_traitsIcESaIcEED1Ev@PLT
	movq	%rbx, %rax
	movq	%rax, %rdi
.LEHB14:
	call	_Unwind_Resume@PLT
.LEHE14:
.L88:
	movq	-8(%rbp), %rbx
	leave
	.cfi_def_cfa 7, 8
	ret
	.cfi_endproc
.LFE5034:
	.section	.gcc_except_table
.LLSDA5034:
	.byte	0xff
	.byte	0xff
	.byte	0x1
	.uleb128 .LLSDACSE5034-.LLSDACSB5034
.LLSDACSB5034:
	.uleb128 .LEHB13-.LFB5034
	.uleb128 .LEHE13-.LEHB13
	.uleb128 .L87-.LFB5034
	.uleb128 0
	.uleb128 .LEHB14-.LFB5034
	.uleb128 .LEHE14-.LEHB14
	.uleb128 0
	.uleb128 0
.LLSDACSE5034:
	.section	.text._ZN11Kredit_CardC2Ev,"axG",@progbits,_ZN11Kredit_CardC5Ev,comdat
	.size	_ZN11Kredit_CardC2Ev, .-_ZN11Kredit_CardC2Ev
	.weak	_ZN11Kredit_CardC1Ev
	.set	_ZN11Kredit_CardC1Ev,_ZN11Kredit_CardC2Ev
	.section	.rodata
.LC2:
	.string	"2200 7009"
.LC3:
	.string	" "
	.section	.text._ZN11Kredit_Card17card_number_inputB5cxx11Ev,"axG",@progbits,_ZN11Kredit_Card17card_number_inputB5cxx11Ev,comdat
	.align 2
	.weak	_ZN11Kredit_Card17card_number_inputB5cxx11Ev
	.type	_ZN11Kredit_Card17card_number_inputB5cxx11Ev, @function
_ZN11Kredit_Card17card_number_inputB5cxx11Ev:
.LFB5039:
	.cfi_startproc
	.cfi_personality 0x9b,DW.ref.__gxx_personality_v0
	.cfi_lsda 0x1b,.LLSDA5039
	endbr64
	pushq	%rbp
	.cfi_def_cfa_offset 16
	.cfi_offset 6, -16
	movq	%rsp, %rbp
	.cfi_def_cfa_register 6
	pushq	%rbx
	subq	$152, %rsp
	.cfi_offset 3, -24
	movq	%rdi, -152(%rbp)
	movq	%rsi, -160(%rbp)
	movq	%fs:40, %rax
	movq	%rax, -24(%rbp)
	xorl	%eax, %eax
	movl	$0, -132(%rbp)
	leaq	-133(%rbp), %rax
	movq	%rax, %rdi
	call	_ZNSaIcEC1Ev@PLT
	leaq	-133(%rbp), %rdx
	leaq	-128(%rbp), %rax
	leaq	.LC2(%rip), %rcx
	movq	%rcx, %rsi
	movq	%rax, %rdi
.LEHB15:
	call	_ZNSt7__cxx1112basic_stringIcSt11char_traitsIcESaIcEEC1IS3_EEPKcRKS3_
.LEHE15:
	leaq	-133(%rbp), %rax
	movq	%rax, %rdi
	call	_ZNSaIcED1Ev@PLT
.L90:
	call	rand@PLT
	movslq	%eax, %rdx
	imulq	$1441151881, %rdx, %rdx
	shrq	$32, %rdx
	sarl	$25, %edx
	movl	%eax, %ecx
	sarl	$31, %ecx
	subl	%ecx, %edx
	movl	%edx, -132(%rbp)
	movl	-132(%rbp), %edx
	imull	$100000000, %edx, %edx
	subl	%edx, %eax
	movl	%eax, -132(%rbp)
	cmpl	$9999999, -132(%rbp)
	jle	.L90
	leaq	-64(%rbp), %rax
	movl	-132(%rbp), %edx
	movl	%edx, %esi
	movq	%rax, %rdi
.LEHB16:
	call	_ZNSt7__cxx119to_stringEi
.LEHE16:
	leaq	-96(%rbp), %rax
	leaq	-128(%rbp), %rcx
	leaq	.LC3(%rip), %rdx
	movq	%rcx, %rsi
	movq	%rax, %rdi
.LEHB17:
	call	_ZStplIcSt11char_traitsIcESaIcEENSt7__cxx1112basic_stringIT_T0_T1_EERKS8_PKS5_
.LEHE17:
	movq	-152(%rbp), %rax
	leaq	-64(%rbp), %rdx
	leaq	-96(%rbp), %rcx
	movq	%rcx, %rsi
	movq	%rax, %rdi
.LEHB18:
	call	_ZStplIcSt11char_traitsIcESaIcEENSt7__cxx1112basic_stringIT_T0_T1_EEOS8_S9_
.LEHE18:
	leaq	-96(%rbp), %rax
	movq	%rax, %rdi
	call	_ZNSt7__cxx1112basic_stringIcSt11char_traitsIcESaIcEED1Ev@PLT
	leaq	-64(%rbp), %rax
	movq	%rax, %rdi
	call	_ZNSt7__cxx1112basic_stringIcSt11char_traitsIcESaIcEED1Ev@PLT
	movq	-152(%rbp), %rax
	leaq	.LC3(%rip), %rdx
	movl	$14, %esi
	movq	%rax, %rdi
.LEHB19:
	call	_ZNSt7__cxx1112basic_stringIcSt11char_traitsIcESaIcEE6insertEmPKc@PLT
	movq	-152(%rbp), %rdx
	leaq	-64(%rbp), %rax
	movq	%rdx, %rsi
	movq	%rax, %rdi
	call	_ZNSt7__cxx1112basic_stringIcSt11char_traitsIcESaIcEEC1ERKS4_@PLT
.LEHE19:
	leaq	-64(%rbp), %rdx
	movq	-160(%rbp), %rax
	movq	%rdx, %rsi
	movq	%rax, %rdi
.LEHB20:
	call	_ZN11Kredit_Card15set_card_numberENSt7__cxx1112basic_stringIcSt11char_traitsIcESaIcEEE
.LEHE20:
	leaq	-64(%rbp), %rax
	movq	%rax, %rdi
	call	_ZNSt7__cxx1112basic_stringIcSt11char_traitsIcESaIcEED1Ev@PLT
	nop
	leaq	-128(%rbp), %rax
	movq	%rax, %rdi
	call	_ZNSt7__cxx1112basic_stringIcSt11char_traitsIcESaIcEED1Ev@PLT
	nop
	movq	-24(%rbp), %rax
	subq	%fs:40, %rax
	je	.L98
	jmp	.L105
.L99:
	endbr64
	movq	%rax, %rbx
	leaq	-133(%rbp), %rax
	movq	%rax, %rdi
	call	_ZNSaIcED1Ev@PLT
	movq	%rbx, %rax
	movq	%rax, %rdi
.LEHB21:
	call	_Unwind_Resume@PLT
.L102:
	endbr64
	movq	%rax, %rbx
	leaq	-96(%rbp), %rax
	movq	%rax, %rdi
	call	_ZNSt7__cxx1112basic_stringIcSt11char_traitsIcESaIcEED1Ev@PLT
	jmp	.L94
.L101:
	endbr64
	movq	%rax, %rbx
.L94:
	leaq	-64(%rbp), %rax
	movq	%rax, %rdi
	call	_ZNSt7__cxx1112basic_stringIcSt11char_traitsIcESaIcEED1Ev@PLT
	jmp	.L95
.L104:
	endbr64
	movq	%rax, %rbx
	leaq	-64(%rbp), %rax
	movq	%rax, %rdi
	call	_ZNSt7__cxx1112basic_stringIcSt11char_traitsIcESaIcEED1Ev@PLT
	jmp	.L97
.L103:
	endbr64
	movq	%rax, %rbx
.L97:
	movq	-152(%rbp), %rax
	movq	%rax, %rdi
	call	_ZNSt7__cxx1112basic_stringIcSt11char_traitsIcESaIcEED1Ev@PLT
	jmp	.L95
.L100:
	endbr64
	movq	%rax, %rbx
.L95:
	leaq	-128(%rbp), %rax
	movq	%rax, %rdi
	call	_ZNSt7__cxx1112basic_stringIcSt11char_traitsIcESaIcEED1Ev@PLT
	movq	%rbx, %rax
	movq	%rax, %rdi
	call	_Unwind_Resume@PLT
.LEHE21:
.L105:
	call	__stack_chk_fail@PLT
.L98:
	movq	-152(%rbp), %rax
	movq	-8(%rbp), %rbx
	leave
	.cfi_def_cfa 7, 8
	ret
	.cfi_endproc
.LFE5039:
	.section	.gcc_except_table
.LLSDA5039:
	.byte	0xff
	.byte	0xff
	.byte	0x1
	.uleb128 .LLSDACSE5039-.LLSDACSB5039
.LLSDACSB5039:
	.uleb128 .LEHB15-.LFB5039
	.uleb128 .LEHE15-.LEHB15
	.uleb128 .L99-.LFB5039
	.uleb128 0
	.uleb128 .LEHB16-.LFB5039
	.uleb128 .LEHE16-.LEHB16
	.uleb128 .L100-.LFB5039
	.uleb128 0
	.uleb128 .LEHB17-.LFB5039
	.uleb128 .LEHE17-.LEHB17
	.uleb128 .L101-.LFB5039
	.uleb128 0
	.uleb128 .LEHB18-.LFB5039
	.uleb128 .LEHE18-.LEHB18
	.uleb128 .L102-.LFB5039
	.uleb128 0
	.uleb128 .LEHB19-.LFB5039
	.uleb128 .LEHE19-.LEHB19
	.uleb128 .L103-.LFB5039
	.uleb128 0
	.uleb128 .LEHB20-.LFB5039
	.uleb128 .LEHE20-.LEHB20
	.uleb128 .L104-.LFB5039
	.uleb128 0
	.uleb128 .LEHB21-.LFB5039
	.uleb128 .LEHE21-.LEHB21
	.uleb128 0
	.uleb128 0
.LLSDACSE5039:
	.section	.text._ZN11Kredit_Card17card_number_inputB5cxx11Ev,"axG",@progbits,_ZN11Kredit_Card17card_number_inputB5cxx11Ev,comdat
	.size	_ZN11Kredit_Card17card_number_inputB5cxx11Ev, .-_ZN11Kredit_Card17card_number_inputB5cxx11Ev
	.section	.rodata
.LC4:
	.string	"/"
	.section	.text._ZN11Kredit_Card15card_date_inputB5cxx11Ev,"axG",@progbits,_ZN11Kredit_Card15card_date_inputB5cxx11Ev,comdat
	.align 2
	.weak	_ZN11Kredit_Card15card_date_inputB5cxx11Ev
	.type	_ZN11Kredit_Card15card_date_inputB5cxx11Ev, @function
_ZN11Kredit_Card15card_date_inputB5cxx11Ev:
.LFB5040:
	.cfi_startproc
	.cfi_personality 0x9b,DW.ref.__gxx_personality_v0
	.cfi_lsda 0x1b,.LLSDA5040
	endbr64
	pushq	%rbp
	.cfi_def_cfa_offset 16
	.cfi_offset 6, -16
	movq	%rsp, %rbp
	.cfi_def_cfa_register 6
	pushq	%rbx
	subq	$168, %rsp
	.cfi_offset 3, -24
	movq	%rdi, -168(%rbp)
	movq	%rsi, -176(%rbp)
	movq	%fs:40, %rax
	movq	%rax, -24(%rbp)
	xorl	%eax, %eax
	movl	$0, %edi
	call	time@PLT
	movq	%rax, -144(%rbp)
	leaq	-144(%rbp), %rax
	movq	%rax, %rdi
	call	localtime@PLT
	movq	%rax, -136(%rbp)
	movq	-136(%rbp), %rax
	movl	20(%rax), %eax
	addl	$1910, %eax
	movl	%eax, -152(%rbp)
	movq	-136(%rbp), %rax
	movl	16(%rax), %eax
	addl	$1, %eax
	movl	%eax, -148(%rbp)
	leaq	-64(%rbp), %rax
	movl	-148(%rbp), %edx
	movl	%edx, %esi
	movq	%rax, %rdi
.LEHB22:
	call	_ZNSt7__cxx119to_stringEi
.LEHE22:
	leaq	-128(%rbp), %rax
	movl	-152(%rbp), %edx
	movl	%edx, %esi
	movq	%rax, %rdi
.LEHB23:
	call	_ZNSt7__cxx119to_stringEi
.LEHE23:
	leaq	-96(%rbp), %rax
	leaq	-128(%rbp), %rcx
	leaq	.LC4(%rip), %rdx
	movq	%rcx, %rsi
	movq	%rax, %rdi
.LEHB24:
	call	_ZStplIcSt11char_traitsIcESaIcEENSt7__cxx1112basic_stringIT_T0_T1_EEOS8_PKS5_
.LEHE24:
	movq	-168(%rbp), %rax
	leaq	-64(%rbp), %rdx
	leaq	-96(%rbp), %rcx
	movq	%rcx, %rsi
	movq	%rax, %rdi
.LEHB25:
	call	_ZStplIcSt11char_traitsIcESaIcEENSt7__cxx1112basic_stringIT_T0_T1_EEOS8_S9_
.LEHE25:
	leaq	-96(%rbp), %rax
	movq	%rax, %rdi
	call	_ZNSt7__cxx1112basic_stringIcSt11char_traitsIcESaIcEED1Ev@PLT
	leaq	-128(%rbp), %rax
	movq	%rax, %rdi
	call	_ZNSt7__cxx1112basic_stringIcSt11char_traitsIcESaIcEED1Ev@PLT
	leaq	-64(%rbp), %rax
	movq	%rax, %rdi
	call	_ZNSt7__cxx1112basic_stringIcSt11char_traitsIcESaIcEED1Ev@PLT
	movq	-168(%rbp), %rdx
	leaq	-64(%rbp), %rax
	movq	%rdx, %rsi
	movq	%rax, %rdi
.LEHB26:
	call	_ZNSt7__cxx1112basic_stringIcSt11char_traitsIcESaIcEEC1ERKS4_@PLT
.LEHE26:
	leaq	-64(%rbp), %rdx
	movq	-176(%rbp), %rax
	movq	%rdx, %rsi
	movq	%rax, %rdi
.LEHB27:
	call	_ZN11Kredit_Card13set_card_dateENSt7__cxx1112basic_stringIcSt11char_traitsIcESaIcEEE
.LEHE27:
	leaq	-64(%rbp), %rax
	movq	%rax, %rdi
	call	_ZNSt7__cxx1112basic_stringIcSt11char_traitsIcESaIcEED1Ev@PLT
	nop
	movq	-24(%rbp), %rax
	subq	%fs:40, %rax
	je	.L113
	jmp	.L119
.L116:
	endbr64
	movq	%rax, %rbx
	leaq	-96(%rbp), %rax
	movq	%rax, %rdi
	call	_ZNSt7__cxx1112basic_stringIcSt11char_traitsIcESaIcEED1Ev@PLT
	jmp	.L109
.L115:
	endbr64
	movq	%rax, %rbx
.L109:
	leaq	-128(%rbp), %rax
	movq	%rax, %rdi
	call	_ZNSt7__cxx1112basic_stringIcSt11char_traitsIcESaIcEED1Ev@PLT
	jmp	.L110
.L114:
	endbr64
	movq	%rax, %rbx
.L110:
	leaq	-64(%rbp), %rax
	movq	%rax, %rdi
	call	_ZNSt7__cxx1112basic_stringIcSt11char_traitsIcESaIcEED1Ev@PLT
	movq	%rbx, %rax
	movq	%rax, %rdi
.LEHB28:
	call	_Unwind_Resume@PLT
.L118:
	endbr64
	movq	%rax, %rbx
	leaq	-64(%rbp), %rax
	movq	%rax, %rdi
	call	_ZNSt7__cxx1112basic_stringIcSt11char_traitsIcESaIcEED1Ev@PLT
	jmp	.L112
.L117:
	endbr64
	movq	%rax, %rbx
.L112:
	movq	-168(%rbp), %rax
	movq	%rax, %rdi
	call	_ZNSt7__cxx1112basic_stringIcSt11char_traitsIcESaIcEED1Ev@PLT
	movq	%rbx, %rax
	movq	%rax, %rdi
	call	_Unwind_Resume@PLT
.LEHE28:
.L119:
	call	__stack_chk_fail@PLT
.L113:
	movq	-168(%rbp), %rax
	movq	-8(%rbp), %rbx
	leave
	.cfi_def_cfa 7, 8
	ret
	.cfi_endproc
.LFE5040:
	.section	.gcc_except_table
.LLSDA5040:
	.byte	0xff
	.byte	0xff
	.byte	0x1
	.uleb128 .LLSDACSE5040-.LLSDACSB5040
.LLSDACSB5040:
	.uleb128 .LEHB22-.LFB5040
	.uleb128 .LEHE22-.LEHB22
	.uleb128 0
	.uleb128 0
	.uleb128 .LEHB23-.LFB5040
	.uleb128 .LEHE23-.LEHB23
	.uleb128 .L114-.LFB5040
	.uleb128 0
	.uleb128 .LEHB24-.LFB5040
	.uleb128 .LEHE24-.LEHB24
	.uleb128 .L115-.LFB5040
	.uleb128 0
	.uleb128 .LEHB25-.LFB5040
	.uleb128 .LEHE25-.LEHB25
	.uleb128 .L116-.LFB5040
	.uleb128 0
	.uleb128 .LEHB26-.LFB5040
	.uleb128 .LEHE26-.LEHB26
	.uleb128 .L117-.LFB5040
	.uleb128 0
	.uleb128 .LEHB27-.LFB5040
	.uleb128 .LEHE27-.LEHB27
	.uleb128 .L118-.LFB5040
	.uleb128 0
	.uleb128 .LEHB28-.LFB5040
	.uleb128 .LEHE28-.LEHB28
	.uleb128 0
	.uleb128 0
.LLSDACSE5040:
	.section	.text._ZN11Kredit_Card15card_date_inputB5cxx11Ev,"axG",@progbits,_ZN11Kredit_Card15card_date_inputB5cxx11Ev,comdat
	.size	_ZN11Kredit_Card15card_date_inputB5cxx11Ev, .-_ZN11Kredit_Card15card_date_inputB5cxx11Ev
	.section	.text._ZN11Kredit_Card14card_cvv_inputB5cxx11Ev,"axG",@progbits,_ZN11Kredit_Card14card_cvv_inputB5cxx11Ev,comdat
	.align 2
	.weak	_ZN11Kredit_Card14card_cvv_inputB5cxx11Ev
	.type	_ZN11Kredit_Card14card_cvv_inputB5cxx11Ev, @function
_ZN11Kredit_Card14card_cvv_inputB5cxx11Ev:
.LFB5041:
	.cfi_startproc
	.cfi_personality 0x9b,DW.ref.__gxx_personality_v0
	.cfi_lsda 0x1b,.LLSDA5041
	endbr64
	pushq	%rbp
	.cfi_def_cfa_offset 16
	.cfi_offset 6, -16
	movq	%rsp, %rbp
	.cfi_def_cfa_register 6
	pushq	%rbx
	subq	$88, %rsp
	.cfi_offset 3, -24
	movq	%rdi, -88(%rbp)
	movq	%rsi, -96(%rbp)
	movq	%fs:40, %rax
	movq	%rax, -24(%rbp)
	xorl	%eax, %eax
	movl	$0, -68(%rbp)
.L121:
	call	rand@PLT
	movslq	%eax, %rdx
	imulq	$274877907, %rdx, %rdx
	shrq	$32, %rdx
	sarl	$6, %edx
	movl	%eax, %ecx
	sarl	$31, %ecx
	subl	%ecx, %edx
	movl	%edx, -68(%rbp)
	movl	-68(%rbp), %edx
	imull	$1000, %edx, %edx
	subl	%edx, %eax
	movl	%eax, -68(%rbp)
	cmpl	$99, -68(%rbp)
	jle	.L121
	leaq	-64(%rbp), %rax
	movl	-68(%rbp), %edx
	movl	%edx, %esi
	movq	%rax, %rdi
.LEHB29:
	call	_ZNSt7__cxx119to_stringEi
.LEHE29:
	leaq	-64(%rbp), %rdx
	movq	-96(%rbp), %rax
	movq	%rdx, %rsi
	movq	%rax, %rdi
.LEHB30:
	call	_ZN11Kredit_Card12set_card_cvvENSt7__cxx1112basic_stringIcSt11char_traitsIcESaIcEEE
.LEHE30:
	leaq	-64(%rbp), %rax
	movq	%rax, %rdi
	call	_ZNSt7__cxx1112basic_stringIcSt11char_traitsIcESaIcEED1Ev@PLT
	movq	-88(%rbp), %rax
	movl	-68(%rbp), %edx
	movl	%edx, %esi
	movq	%rax, %rdi
.LEHB31:
	call	_ZNSt7__cxx119to_stringEi
	movq	-24(%rbp), %rax
	subq	%fs:40, %rax
	je	.L124
	jmp	.L126
.L125:
	endbr64
	movq	%rax, %rbx
	leaq	-64(%rbp), %rax
	movq	%rax, %rdi
	call	_ZNSt7__cxx1112basic_stringIcSt11char_traitsIcESaIcEED1Ev@PLT
	movq	%rbx, %rax
	movq	%rax, %rdi
	call	_Unwind_Resume@PLT
.LEHE31:
.L126:
	call	__stack_chk_fail@PLT
.L124:
	movq	-88(%rbp), %rax
	movq	-8(%rbp), %rbx
	leave
	.cfi_def_cfa 7, 8
	ret
	.cfi_endproc
.LFE5041:
	.section	.gcc_except_table
.LLSDA5041:
	.byte	0xff
	.byte	0xff
	.byte	0x1
	.uleb128 .LLSDACSE5041-.LLSDACSB5041
.LLSDACSB5041:
	.uleb128 .LEHB29-.LFB5041
	.uleb128 .LEHE29-.LEHB29
	.uleb128 0
	.uleb128 0
	.uleb128 .LEHB30-.LFB5041
	.uleb128 .LEHE30-.LEHB30
	.uleb128 .L125-.LFB5041
	.uleb128 0
	.uleb128 .LEHB31-.LFB5041
	.uleb128 .LEHE31-.LEHB31
	.uleb128 0
	.uleb128 0
.LLSDACSE5041:
	.section	.text._ZN11Kredit_Card14card_cvv_inputB5cxx11Ev,"axG",@progbits,_ZN11Kredit_Card14card_cvv_inputB5cxx11Ev,comdat
	.size	_ZN11Kredit_Card14card_cvv_inputB5cxx11Ev, .-_ZN11Kredit_Card14card_cvv_inputB5cxx11Ev
	.section	.rodata
	.align 8
.LC5:
	.string	"\n\320\222\320\260\321\210 \320\275\320\276\320\274\320\265\321\200 \320\272\320\260\321\200\321\202\321\213: "
.LC6:
	.string	"\320\222\320\260\321\210\320\265 \320\270\320\274\321\217: "
.LC7:
	.string	"\320\222\320\260\321\210\320\260 \321\204\320\260\320\274\320\270\320\273\320\270\321\217: "
	.align 8
.LC8:
	.string	"\320\232\320\260\321\200\321\202\320\260 \320\264\320\265\320\271\321\201\321\202\320\262\321\203\320\265\321\202 \320\264\320\276 "
.LC9:
	.string	"CVV \320\272\320\260\321\200\321\202\321\213: "
	.section	.text._ZN11Kredit_Card15print_card_infoEv,"axG",@progbits,_ZN11Kredit_Card15print_card_infoEv,comdat
	.align 2
	.weak	_ZN11Kredit_Card15print_card_infoEv
	.type	_ZN11Kredit_Card15print_card_infoEv, @function
_ZN11Kredit_Card15print_card_infoEv:
.LFB5042:
	.cfi_startproc
	.cfi_personality 0x9b,DW.ref.__gxx_personality_v0
	.cfi_lsda 0x1b,.LLSDA5042
	endbr64
	pushq	%rbp
	.cfi_def_cfa_offset 16
	.cfi_offset 6, -16
	movq	%rsp, %rbp
	.cfi_def_cfa_register 6
	pushq	%rbx
	subq	$72, %rsp
	.cfi_offset 3, -24
	movq	%rdi, -72(%rbp)
	movq	%fs:40, %rax
	movq	%rax, -24(%rbp)
	xorl	%eax, %eax
	leaq	.LC5(%rip), %rax
	movq	%rax, %rsi
	leaq	_ZSt4cout(%rip), %rax
	movq	%rax, %rdi
.LEHB32:
	call	_ZStlsISt11char_traitsIcEERSt13basic_ostreamIcT_ES5_PKc@PLT
	movq	%rax, %rbx
	leaq	-64(%rbp), %rax
	movq	-72(%rbp), %rdx
	movq	%rdx, %rsi
	movq	%rax, %rdi
	call	_ZN11Kredit_Card15get_card_numberB5cxx11Ev
.LEHE32:
	leaq	-64(%rbp), %rax
	movq	%rax, %rsi
	movq	%rbx, %rdi
.LEHB33:
	call	_ZStlsIcSt11char_traitsIcESaIcEERSt13basic_ostreamIT_T0_ES7_RKNSt7__cxx1112basic_stringIS4_S5_T1_EE@PLT
	movq	_ZSt4endlIcSt11char_traitsIcEERSt13basic_ostreamIT_T0_ES6_@GOTPCREL(%rip), %rdx
	movq	%rdx, %rsi
	movq	%rax, %rdi
	call	_ZNSolsEPFRSoS_E@PLT
.LEHE33:
	leaq	-64(%rbp), %rax
	movq	%rax, %rdi
	call	_ZNSt7__cxx1112basic_stringIcSt11char_traitsIcESaIcEED1Ev@PLT
	leaq	.LC6(%rip), %rax
	movq	%rax, %rsi
	leaq	_ZSt4cout(%rip), %rax
	movq	%rax, %rdi
.LEHB34:
	call	_ZStlsISt11char_traitsIcEERSt13basic_ostreamIcT_ES5_PKc@PLT
	movq	%rax, %rbx
	leaq	-64(%rbp), %rax
	movq	-72(%rbp), %rdx
	movq	%rdx, %rsi
	movq	%rax, %rdi
	call	_ZN11Kredit_Card13get_card_nameB5cxx11Ev
.LEHE34:
	leaq	-64(%rbp), %rax
	movq	%rax, %rsi
	movq	%rbx, %rdi
.LEHB35:
	call	_ZStlsIcSt11char_traitsIcESaIcEERSt13basic_ostreamIT_T0_ES7_RKNSt7__cxx1112basic_stringIS4_S5_T1_EE@PLT
	movq	_ZSt4endlIcSt11char_traitsIcEERSt13basic_ostreamIT_T0_ES6_@GOTPCREL(%rip), %rdx
	movq	%rdx, %rsi
	movq	%rax, %rdi
	call	_ZNSolsEPFRSoS_E@PLT
.LEHE35:
	leaq	-64(%rbp), %rax
	movq	%rax, %rdi
	call	_ZNSt7__cxx1112basic_stringIcSt11char_traitsIcESaIcEED1Ev@PLT
	leaq	.LC7(%rip), %rax
	movq	%rax, %rsi
	leaq	_ZSt4cout(%rip), %rax
	movq	%rax, %rdi
.LEHB36:
	call	_ZStlsISt11char_traitsIcEERSt13basic_ostreamIcT_ES5_PKc@PLT
	movq	%rax, %rbx
	leaq	-64(%rbp), %rax
	movq	-72(%rbp), %rdx
	movq	%rdx, %rsi
	movq	%rax, %rdi
	call	_ZN11Kredit_Card16get_card_surnameB5cxx11Ev
.LEHE36:
	leaq	-64(%rbp), %rax
	movq	%rax, %rsi
	movq	%rbx, %rdi
.LEHB37:
	call	_ZStlsIcSt11char_traitsIcESaIcEERSt13basic_ostreamIT_T0_ES7_RKNSt7__cxx1112basic_stringIS4_S5_T1_EE@PLT
	movq	_ZSt4endlIcSt11char_traitsIcEERSt13basic_ostreamIT_T0_ES6_@GOTPCREL(%rip), %rdx
	movq	%rdx, %rsi
	movq	%rax, %rdi
	call	_ZNSolsEPFRSoS_E@PLT
.LEHE37:
	leaq	-64(%rbp), %rax
	movq	%rax, %rdi
	call	_ZNSt7__cxx1112basic_stringIcSt11char_traitsIcESaIcEED1Ev@PLT
	leaq	.LC8(%rip), %rax
	movq	%rax, %rsi
	leaq	_ZSt4cout(%rip), %rax
	movq	%rax, %rdi
.LEHB38:
	call	_ZStlsISt11char_traitsIcEERSt13basic_ostreamIcT_ES5_PKc@PLT
	movq	%rax, %rbx
	leaq	-64(%rbp), %rax
	movq	-72(%rbp), %rdx
	movq	%rdx, %rsi
	movq	%rax, %rdi
	call	_ZN11Kredit_Card13get_card_dateB5cxx11Ev
.LEHE38:
	leaq	-64(%rbp), %rax
	movq	%rax, %rsi
	movq	%rbx, %rdi
.LEHB39:
	call	_ZStlsIcSt11char_traitsIcESaIcEERSt13basic_ostreamIT_T0_ES7_RKNSt7__cxx1112basic_stringIS4_S5_T1_EE@PLT
	movq	_ZSt4endlIcSt11char_traitsIcEERSt13basic_ostreamIT_T0_ES6_@GOTPCREL(%rip), %rdx
	movq	%rdx, %rsi
	movq	%rax, %rdi
	call	_ZNSolsEPFRSoS_E@PLT
.LEHE39:
	leaq	-64(%rbp), %rax
	movq	%rax, %rdi
	call	_ZNSt7__cxx1112basic_stringIcSt11char_traitsIcESaIcEED1Ev@PLT
	leaq	.LC9(%rip), %rax
	movq	%rax, %rsi
	leaq	_ZSt4cout(%rip), %rax
	movq	%rax, %rdi
.LEHB40:
	call	_ZStlsISt11char_traitsIcEERSt13basic_ostreamIcT_ES5_PKc@PLT
	movq	%rax, %rbx
	leaq	-64(%rbp), %rax
	movq	-72(%rbp), %rdx
	movq	%rdx, %rsi
	movq	%rax, %rdi
	call	_ZN11Kredit_Card12get_card_cvvB5cxx11Ev
.LEHE40:
	leaq	-64(%rbp), %rax
	movq	%rax, %rsi
	movq	%rbx, %rdi
.LEHB41:
	call	_ZStlsIcSt11char_traitsIcESaIcEERSt13basic_ostreamIT_T0_ES7_RKNSt7__cxx1112basic_stringIS4_S5_T1_EE@PLT
	movq	_ZSt4endlIcSt11char_traitsIcEERSt13basic_ostreamIT_T0_ES6_@GOTPCREL(%rip), %rdx
	movq	%rdx, %rsi
	movq	%rax, %rdi
	call	_ZNSolsEPFRSoS_E@PLT
.LEHE41:
	leaq	-64(%rbp), %rax
	movq	%rax, %rdi
	call	_ZNSt7__cxx1112basic_stringIcSt11char_traitsIcESaIcEED1Ev@PLT
	nop
	movq	-24(%rbp), %rax
	subq	%fs:40, %rax
	je	.L133
	jmp	.L139
.L134:
	endbr64
	movq	%rax, %rbx
	leaq	-64(%rbp), %rax
	movq	%rax, %rdi
	call	_ZNSt7__cxx1112basic_stringIcSt11char_traitsIcESaIcEED1Ev@PLT
	movq	%rbx, %rax
	movq	%rax, %rdi
.LEHB42:
	call	_Unwind_Resume@PLT
.L135:
	endbr64
	movq	%rax, %rbx
	leaq	-64(%rbp), %rax
	movq	%rax, %rdi
	call	_ZNSt7__cxx1112basic_stringIcSt11char_traitsIcESaIcEED1Ev@PLT
	movq	%rbx, %rax
	movq	%rax, %rdi
	call	_Unwind_Resume@PLT
.L136:
	endbr64
	movq	%rax, %rbx
	leaq	-64(%rbp), %rax
	movq	%rax, %rdi
	call	_ZNSt7__cxx1112basic_stringIcSt11char_traitsIcESaIcEED1Ev@PLT
	movq	%rbx, %rax
	movq	%rax, %rdi
	call	_Unwind_Resume@PLT
.L137:
	endbr64
	movq	%rax, %rbx
	leaq	-64(%rbp), %rax
	movq	%rax, %rdi
	call	_ZNSt7__cxx1112basic_stringIcSt11char_traitsIcESaIcEED1Ev@PLT
	movq	%rbx, %rax
	movq	%rax, %rdi
	call	_Unwind_Resume@PLT
.L138:
	endbr64
	movq	%rax, %rbx
	leaq	-64(%rbp), %rax
	movq	%rax, %rdi
	call	_ZNSt7__cxx1112basic_stringIcSt11char_traitsIcESaIcEED1Ev@PLT
	movq	%rbx, %rax
	movq	%rax, %rdi
	call	_Unwind_Resume@PLT
.LEHE42:
.L139:
	call	__stack_chk_fail@PLT
.L133:
	movq	-8(%rbp), %rbx
	leave
	.cfi_def_cfa 7, 8
	ret
	.cfi_endproc
.LFE5042:
	.section	.gcc_except_table
.LLSDA5042:
	.byte	0xff
	.byte	0xff
	.byte	0x1
	.uleb128 .LLSDACSE5042-.LLSDACSB5042
.LLSDACSB5042:
	.uleb128 .LEHB32-.LFB5042
	.uleb128 .LEHE32-.LEHB32
	.uleb128 0
	.uleb128 0
	.uleb128 .LEHB33-.LFB5042
	.uleb128 .LEHE33-.LEHB33
	.uleb128 .L134-.LFB5042
	.uleb128 0
	.uleb128 .LEHB34-.LFB5042
	.uleb128 .LEHE34-.LEHB34
	.uleb128 0
	.uleb128 0
	.uleb128 .LEHB35-.LFB5042
	.uleb128 .LEHE35-.LEHB35
	.uleb128 .L135-.LFB5042
	.uleb128 0
	.uleb128 .LEHB36-.LFB5042
	.uleb128 .LEHE36-.LEHB36
	.uleb128 0
	.uleb128 0
	.uleb128 .LEHB37-.LFB5042
	.uleb128 .LEHE37-.LEHB37
	.uleb128 .L136-.LFB5042
	.uleb128 0
	.uleb128 .LEHB38-.LFB5042
	.uleb128 .LEHE38-.LEHB38
	.uleb128 0
	.uleb128 0
	.uleb128 .LEHB39-.LFB5042
	.uleb128 .LEHE39-.LEHB39
	.uleb128 .L137-.LFB5042
	.uleb128 0
	.uleb128 .LEHB40-.LFB5042
	.uleb128 .LEHE40-.LEHB40
	.uleb128 0
	.uleb128 0
	.uleb128 .LEHB41-.LFB5042
	.uleb128 .LEHE41-.LEHB41
	.uleb128 .L138-.LFB5042
	.uleb128 0
	.uleb128 .LEHB42-.LFB5042
	.uleb128 .LEHE42-.LEHB42
	.uleb128 0
	.uleb128 0
.LLSDACSE5042:
	.section	.text._ZN11Kredit_Card15print_card_infoEv,"axG",@progbits,_ZN11Kredit_Card15print_card_infoEv,comdat
	.size	_ZN11Kredit_Card15print_card_infoEv, .-_ZN11Kredit_Card15print_card_infoEv
	.section	.rodata
	.align 8
.LC10:
	.string	"\320\237\321\200\320\270\320\264\321\203\320\274\320\260\320\271\321\202\320\265 \320\270 \320\262\320\262\320\265\320\264\320\270\321\202\320\265 4-\320\265\321\205 \320\267\320\275\320\260\321\207\320\275\321\213\320\271 \320\277\320\260\321\200\320\276\320\273\321\214 \320\272\320\260\321\200\321\202\321\213(\320\222\320\260\320\266\320\275\320\276 \320\265\320\263\320\276 \320\267\320\260\320\277\320\276\320\274\320\275\320\270\321\202\321\214!!!)\n"
	.align 8
.LC11:
	.string	"\320\236\321\210\320\270\320\261\320\272\320\260 \320\262\320\262\320\276\320\264\320\260 \320\277\320\260\321\200\320\276\320\273\321\217. \320\237\320\276\320\277\321\200\320\276\320\261\321\203\320\271\321\202\320\265 \320\265\321\211\320\265 \321\200\320\260\320\267\n"
	.section	.text._ZN11Kredit_Card19card_password_inputB5cxx11Ev,"axG",@progbits,_ZN11Kredit_Card19card_password_inputB5cxx11Ev,comdat
	.align 2
	.weak	_ZN11Kredit_Card19card_password_inputB5cxx11Ev
	.type	_ZN11Kredit_Card19card_password_inputB5cxx11Ev, @function
_ZN11Kredit_Card19card_password_inputB5cxx11Ev:
.LFB5043:
	.cfi_startproc
	.cfi_personality 0x9b,DW.ref.__gxx_personality_v0
	.cfi_lsda 0x1b,.LLSDA5043
	endbr64
	pushq	%rbp
	.cfi_def_cfa_offset 16
	.cfi_offset 6, -16
	movq	%rsp, %rbp
	.cfi_def_cfa_register 6
	pushq	%rbx
	subq	$88, %rsp
	.cfi_offset 3, -24
	movq	%rdi, -88(%rbp)
	movq	%rsi, -96(%rbp)
	movq	%fs:40, %rax
	movq	%rax, -24(%rbp)
	xorl	%eax, %eax
	leaq	.LC10(%rip), %rax
	movq	%rax, %rsi
	leaq	_ZSt4cout(%rip), %rax
	movq	%rax, %rdi
.LEHB43:
	call	_ZStlsISt11char_traitsIcEERSt13basic_ostreamIcT_ES5_PKc@PLT
.L143:
	leaq	-68(%rbp), %rax
	movq	%rax, %rsi
	leaq	_ZSt3cin(%rip), %rax
	movq	%rax, %rdi
	call	_ZNSirsERi@PLT
	movl	-68(%rbp), %eax
	cmpl	$999, %eax
	jle	.L141
	movl	-68(%rbp), %eax
	cmpl	$9999, %eax
	jle	.L142
.L141:
	leaq	.LC11(%rip), %rax
	movq	%rax, %rsi
	leaq	_ZSt4cout(%rip), %rax
	movq	%rax, %rdi
	call	_ZStlsISt11char_traitsIcEERSt13basic_ostreamIcT_ES5_PKc@PLT
.L142:
	movl	-68(%rbp), %eax
	cmpl	$999, %eax
	jle	.L143
	movl	-68(%rbp), %eax
	cmpl	$9999, %eax
	jg	.L143
	movl	-68(%rbp), %edx
	leaq	-64(%rbp), %rax
	movl	%edx, %esi
	movq	%rax, %rdi
	call	_ZNSt7__cxx119to_stringEi
.LEHE43:
	leaq	-64(%rbp), %rdx
	movq	-96(%rbp), %rax
	movq	%rdx, %rsi
	movq	%rax, %rdi
.LEHB44:
	call	_ZN11Kredit_Card17set_card_passwordENSt7__cxx1112basic_stringIcSt11char_traitsIcESaIcEEE
.LEHE44:
	leaq	-64(%rbp), %rax
	movq	%rax, %rdi
	call	_ZNSt7__cxx1112basic_stringIcSt11char_traitsIcESaIcEED1Ev@PLT
	movl	-68(%rbp), %edx
	movq	-88(%rbp), %rax
	movl	%edx, %esi
	movq	%rax, %rdi
.LEHB45:
	call	_ZNSt7__cxx119to_stringEi
	movq	-24(%rbp), %rax
	subq	%fs:40, %rax
	je	.L146
	jmp	.L148
.L147:
	endbr64
	movq	%rax, %rbx
	leaq	-64(%rbp), %rax
	movq	%rax, %rdi
	call	_ZNSt7__cxx1112basic_stringIcSt11char_traitsIcESaIcEED1Ev@PLT
	movq	%rbx, %rax
	movq	%rax, %rdi
	call	_Unwind_Resume@PLT
.LEHE45:
.L148:
	call	__stack_chk_fail@PLT
.L146:
	movq	-88(%rbp), %rax
	movq	-8(%rbp), %rbx
	leave
	.cfi_def_cfa 7, 8
	ret
	.cfi_endproc
.LFE5043:
	.section	.gcc_except_table
.LLSDA5043:
	.byte	0xff
	.byte	0xff
	.byte	0x1
	.uleb128 .LLSDACSE5043-.LLSDACSB5043
.LLSDACSB5043:
	.uleb128 .LEHB43-.LFB5043
	.uleb128 .LEHE43-.LEHB43
	.uleb128 0
	.uleb128 0
	.uleb128 .LEHB44-.LFB5043
	.uleb128 .LEHE44-.LEHB44
	.uleb128 .L147-.LFB5043
	.uleb128 0
	.uleb128 .LEHB45-.LFB5043
	.uleb128 .LEHE45-.LEHB45
	.uleb128 0
	.uleb128 0
.LLSDACSE5043:
	.section	.text._ZN11Kredit_Card19card_password_inputB5cxx11Ev,"axG",@progbits,_ZN11Kredit_Card19card_password_inputB5cxx11Ev,comdat
	.size	_ZN11Kredit_Card19card_password_inputB5cxx11Ev, .-_ZN11Kredit_Card19card_password_inputB5cxx11Ev
	.section	.rodata
	.align 8
.LC12:
	.string	"\320\222\320\260\321\210 \320\275\320\276\320\274\320\265\321\200 \320\272\320\260\321\200\321\202\321\213: "
.LC13:
	.string	"\320\222\320\262\320\265\320\264\320\270\321\202\320\265 \320\270\320\274\321\217: "
	.align 8
.LC14:
	.string	"\320\222\320\262\320\265\320\264\320\270\321\202\320\265 \321\204\320\260\320\274\320\270\320\273\320\270\321\216: "
.LC15:
	.string	"regist_card.txt"
.LC16:
	.string	"\320\275\320\276\320\274\320\265\321\200 \320\272\320\260\321\200\321\202\321\213: "
.LC17:
	.string	" \320\270\320\274\321\217: "
.LC18:
	.string	" \321\204\320\260\320\274\320\270\320\273\320\270\321\217: "
.LC19:
	.string	" \320\264\320\260\321\202\320\260: "
.LC20:
	.string	" cvv: "
.LC21:
	.string	" \320\277\320\260\321\200\320\276\320\273\321\214: "
	.section	.text._ZN11Kredit_Card8add_cardEv,"axG",@progbits,_ZN11Kredit_Card8add_cardEv,comdat
	.align 2
	.weak	_ZN11Kredit_Card8add_cardEv
	.type	_ZN11Kredit_Card8add_cardEv, @function
_ZN11Kredit_Card8add_cardEv:
.LFB5044:
	.cfi_startproc
	.cfi_personality 0x9b,DW.ref.__gxx_personality_v0
	.cfi_lsda 0x1b,.LLSDA5044
	endbr64
	pushq	%rbp
	.cfi_def_cfa_offset 16
	.cfi_offset 6, -16
	movq	%rsp, %rbp
	.cfi_def_cfa_register 6
	pushq	%r12
	pushq	%rbx
	subq	$624, %rsp
	.cfi_offset 12, -24
	.cfi_offset 3, -32
	movq	%rdi, -632(%rbp)
	movq	%fs:40, %rax
	movq	%rax, -24(%rbp)
	xorl	%eax, %eax
	leaq	-544(%rbp), %rax
	movq	-632(%rbp), %rdx
	movq	%rdx, %rsi
	movq	%rax, %rdi
.LEHB46:
	call	_ZN11Kredit_Card17card_number_inputB5cxx11Ev
	movq	-632(%rbp), %rax
	leaq	-544(%rbp), %rdx
	movq	%rdx, %rsi
	movq	%rax, %rdi
	call	_ZNSt7__cxx1112basic_stringIcSt11char_traitsIcESaIcEEaSEOS4_@PLT
	leaq	-544(%rbp), %rax
	movq	%rax, %rdi
	call	_ZNSt7__cxx1112basic_stringIcSt11char_traitsIcESaIcEED1Ev@PLT
	leaq	.LC12(%rip), %rax
	movq	%rax, %rsi
	leaq	_ZSt4cout(%rip), %rax
	movq	%rax, %rdi
	call	_ZStlsISt11char_traitsIcEERSt13basic_ostreamIcT_ES5_PKc@PLT
	movq	%rax, %rdx
	movq	-632(%rbp), %rax
	movq	%rax, %rsi
	movq	%rdx, %rdi
	call	_ZStlsIcSt11char_traitsIcESaIcEERSt13basic_ostreamIT_T0_ES7_RKNSt7__cxx1112basic_stringIS4_S5_T1_EE@PLT
	movq	_ZSt4endlIcSt11char_traitsIcEERSt13basic_ostreamIT_T0_ES6_@GOTPCREL(%rip), %rdx
	movq	%rdx, %rsi
	movq	%rax, %rdi
	call	_ZNSolsEPFRSoS_E@PLT
	leaq	.LC13(%rip), %rax
	movq	%rax, %rsi
	leaq	_ZSt4cout(%rip), %rax
	movq	%rax, %rdi
	call	_ZStlsISt11char_traitsIcEERSt13basic_ostreamIcT_ES5_PKc@PLT
	movq	-632(%rbp), %rax
	addq	$32, %rax
	movq	%rax, %rsi
	leaq	_ZSt3cin(%rip), %rax
	movq	%rax, %rdi
	call	_ZStrsIcSt11char_traitsIcESaIcEERSt13basic_istreamIT_T0_ES7_RNSt7__cxx1112basic_stringIS4_S5_T1_EE@PLT
	movq	-632(%rbp), %rax
	leaq	32(%rax), %rdx
	leaq	-544(%rbp), %rax
	movq	%rdx, %rsi
	movq	%rax, %rdi
	call	_ZNSt7__cxx1112basic_stringIcSt11char_traitsIcESaIcEEC1ERKS4_@PLT
.LEHE46:
	leaq	-544(%rbp), %rdx
	movq	-632(%rbp), %rax
	movq	%rdx, %rsi
	movq	%rax, %rdi
.LEHB47:
	call	_ZN11Kredit_Card13set_card_nameENSt7__cxx1112basic_stringIcSt11char_traitsIcESaIcEEE
.LEHE47:
	leaq	-544(%rbp), %rax
	movq	%rax, %rdi
	call	_ZNSt7__cxx1112basic_stringIcSt11char_traitsIcESaIcEED1Ev@PLT
	leaq	.LC14(%rip), %rax
	movq	%rax, %rsi
	leaq	_ZSt4cout(%rip), %rax
	movq	%rax, %rdi
.LEHB48:
	call	_ZStlsISt11char_traitsIcEERSt13basic_ostreamIcT_ES5_PKc@PLT
	movq	-632(%rbp), %rax
	addq	$64, %rax
	movq	%rax, %rsi
	leaq	_ZSt3cin(%rip), %rax
	movq	%rax, %rdi
	call	_ZStrsIcSt11char_traitsIcESaIcEERSt13basic_istreamIT_T0_ES7_RNSt7__cxx1112basic_stringIS4_S5_T1_EE@PLT
	movq	-632(%rbp), %rax
	leaq	64(%rax), %rdx
	leaq	-544(%rbp), %rax
	movq	%rdx, %rsi
	movq	%rax, %rdi
	call	_ZNSt7__cxx1112basic_stringIcSt11char_traitsIcESaIcEEC1ERKS4_@PLT
.LEHE48:
	leaq	-544(%rbp), %rdx
	movq	-632(%rbp), %rax
	movq	%rdx, %rsi
	movq	%rax, %rdi
.LEHB49:
	call	_ZN11Kredit_Card16set_card_surnameENSt7__cxx1112basic_stringIcSt11char_traitsIcESaIcEEE
.LEHE49:
	leaq	-544(%rbp), %rax
	movq	%rax, %rdi
	call	_ZNSt7__cxx1112basic_stringIcSt11char_traitsIcESaIcEED1Ev@PLT
	leaq	-544(%rbp), %rax
	movq	-632(%rbp), %rdx
	movq	%rdx, %rsi
	movq	%rax, %rdi
.LEHB50:
	call	_ZN11Kredit_Card15card_date_inputB5cxx11Ev
	movq	-632(%rbp), %rax
	leaq	96(%rax), %rdx
	leaq	-544(%rbp), %rax
	movq	%rax, %rsi
	movq	%rdx, %rdi
	call	_ZNSt7__cxx1112basic_stringIcSt11char_traitsIcESaIcEEaSEOS4_@PLT
	leaq	-544(%rbp), %rax
	movq	%rax, %rdi
	call	_ZNSt7__cxx1112basic_stringIcSt11char_traitsIcESaIcEED1Ev@PLT
	leaq	-544(%rbp), %rax
	movq	-632(%rbp), %rdx
	movq	%rdx, %rsi
	movq	%rax, %rdi
	call	_ZN11Kredit_Card14card_cvv_inputB5cxx11Ev
	movq	-632(%rbp), %rax
	leaq	128(%rax), %rdx
	leaq	-544(%rbp), %rax
	movq	%rax, %rsi
	movq	%rdx, %rdi
	call	_ZNSt7__cxx1112basic_stringIcSt11char_traitsIcESaIcEEaSEOS4_@PLT
	leaq	-544(%rbp), %rax
	movq	%rax, %rdi
	call	_ZNSt7__cxx1112basic_stringIcSt11char_traitsIcESaIcEED1Ev@PLT
	leaq	-544(%rbp), %rax
	movq	-632(%rbp), %rdx
	movq	%rdx, %rsi
	movq	%rax, %rdi
	call	_ZN11Kredit_Card19card_password_inputB5cxx11Ev
	movq	-632(%rbp), %rax
	leaq	160(%rax), %rdx
	leaq	-544(%rbp), %rax
	movq	%rax, %rsi
	movq	%rdx, %rdi
	call	_ZNSt7__cxx1112basic_stringIcSt11char_traitsIcESaIcEEaSEOS4_@PLT
	leaq	-544(%rbp), %rax
	movq	%rax, %rdi
	call	_ZNSt7__cxx1112basic_stringIcSt11char_traitsIcESaIcEED1Ev@PLT
	movq	-632(%rbp), %rax
	leaq	160(%rax), %rdx
	leaq	-576(%rbp), %rax
	movq	%rdx, %rsi
	movq	%rax, %rdi
	call	_ZNSt7__cxx1112basic_stringIcSt11char_traitsIcESaIcEEC1ERKS4_@PLT
.LEHE50:
	leaq	-544(%rbp), %rax
	leaq	-576(%rbp), %rdx
	movq	%rdx, %rsi
	movq	%rax, %rdi
.LEHB51:
	call	_Z7encryptNSt7__cxx1112basic_stringIcSt11char_traitsIcESaIcEEE
.LEHE51:
	leaq	-544(%rbp), %rax
	movq	%rax, %rdi
	call	_ZNSt7__cxx1112basic_stringIcSt11char_traitsIcESaIcEED1Ev@PLT
	leaq	-576(%rbp), %rax
	movq	%rax, %rdi
	call	_ZNSt7__cxx1112basic_stringIcSt11char_traitsIcESaIcEED1Ev@PLT
	movq	-632(%rbp), %rbx
	movq	-632(%rbp), %rax
	movq	%rax, %rdi
	call	_ZNSt7__cxx1112basic_stringIcSt11char_traitsIcESaIcEE3endEv@PLT
	movq	%rax, -600(%rbp)
	leaq	-600(%rbp), %rdx
	leaq	-584(%rbp), %rax
	movq	%rdx, %rsi
	movq	%rax, %rdi
	call	_ZN9__gnu_cxx17__normal_iteratorIPKcNSt7__cxx1112basic_stringIcSt11char_traitsIcESaIcEEEEC1IPcEERKNS0_IT_NS_11__enable_ifIXsrSt10__are_sameISC_SB_E7__valueES8_E6__typeEEE
	movb	$32, -609(%rbp)
	movq	-632(%rbp), %rax
	movq	%rax, %rdi
	call	_ZNSt7__cxx1112basic_stringIcSt11char_traitsIcESaIcEE3endEv@PLT
	movq	%rax, %r12
	movq	-632(%rbp), %rax
	movq	%rax, %rdi
	call	_ZNSt7__cxx1112basic_stringIcSt11char_traitsIcESaIcEE5beginEv@PLT
	movq	%rax, %rcx
	leaq	-609(%rbp), %rax
	movq	%rax, %rdx
	movq	%r12, %rsi
	movq	%rcx, %rdi
.LEHB52:
	call	_ZSt6removeIN9__gnu_cxx17__normal_iteratorIPcNSt7__cxx1112basic_stringIcSt11char_traitsIcESaIcEEEEEcET_SA_SA_RKT0_
	movq	%rax, -608(%rbp)
	leaq	-608(%rbp), %rdx
	leaq	-592(%rbp), %rax
	movq	%rdx, %rsi
	movq	%rax, %rdi
	call	_ZN9__gnu_cxx17__normal_iteratorIPKcNSt7__cxx1112basic_stringIcSt11char_traitsIcESaIcEEEEC1IPcEERKNS0_IT_NS_11__enable_ifIXsrSt10__are_sameISC_SB_E7__valueES8_E6__typeEEE
	movq	-584(%rbp), %rdx
	movq	-592(%rbp), %rax
	movq	%rax, %rsi
	movq	%rbx, %rdi
	call	_ZNSt7__cxx1112basic_stringIcSt11char_traitsIcESaIcEE5eraseEN9__gnu_cxx17__normal_iteratorIPKcS4_EES9_@PLT
	movq	-632(%rbp), %rdx
	leaq	-544(%rbp), %rax
	movq	%rdx, %rsi
	movq	%rax, %rdi
	call	_ZNSt7__cxx1112basic_stringIcSt11char_traitsIcESaIcEEC1ERKS4_@PLT
.LEHE52:
	leaq	-544(%rbp), %rdx
	movq	-632(%rbp), %rax
	movq	%rdx, %rsi
	movq	%rax, %rdi
.LEHB53:
	call	_ZN11Kredit_Card15set_card_numberENSt7__cxx1112basic_stringIcSt11char_traitsIcESaIcEEE
.LEHE53:
	leaq	-544(%rbp), %rax
	movq	%rax, %rdi
	call	_ZNSt7__cxx1112basic_stringIcSt11char_traitsIcESaIcEED1Ev@PLT
	leaq	-544(%rbp), %rax
	movq	%rax, %rdi
.LEHB54:
	call	_ZNSt14basic_ofstreamIcSt11char_traitsIcEEC1Ev@PLT
.LEHE54:
	leaq	-544(%rbp), %rax
	movl	$16, %edx
	leaq	.LC15(%rip), %rcx
	movq	%rcx, %rsi
	movq	%rax, %rdi
.LEHB55:
	call	_ZNSt14basic_ofstreamIcSt11char_traitsIcEE4openEPKcSt13_Ios_Openmode@PLT
	leaq	-544(%rbp), %rax
	leaq	.LC16(%rip), %rdx
	movq	%rdx, %rsi
	movq	%rax, %rdi
	call	_ZStlsISt11char_traitsIcEERSt13basic_ostreamIcT_ES5_PKc@PLT
	movq	%rax, %rdx
	movq	-632(%rbp), %rax
	movq	%rax, %rsi
	movq	%rdx, %rdi
	call	_ZStlsIcSt11char_traitsIcESaIcEERSt13basic_ostreamIT_T0_ES7_RKNSt7__cxx1112basic_stringIS4_S5_T1_EE@PLT
	movq	%rax, %rdx
	leaq	.LC17(%rip), %rax
	movq	%rax, %rsi
	movq	%rdx, %rdi
	call	_ZStlsISt11char_traitsIcEERSt13basic_ostreamIcT_ES5_PKc@PLT
	movq	%rax, %rdx
	movq	-632(%rbp), %rax
	addq	$32, %rax
	movq	%rax, %rsi
	movq	%rdx, %rdi
	call	_ZStlsIcSt11char_traitsIcESaIcEERSt13basic_ostreamIT_T0_ES7_RKNSt7__cxx1112basic_stringIS4_S5_T1_EE@PLT
	movq	%rax, %rdx
	leaq	.LC18(%rip), %rax
	movq	%rax, %rsi
	movq	%rdx, %rdi
	call	_ZStlsISt11char_traitsIcEERSt13basic_ostreamIcT_ES5_PKc@PLT
	movq	%rax, %rdx
	movq	-632(%rbp), %rax
	addq	$64, %rax
	movq	%rax, %rsi
	movq	%rdx, %rdi
	call	_ZStlsIcSt11char_traitsIcESaIcEERSt13basic_ostreamIT_T0_ES7_RKNSt7__cxx1112basic_stringIS4_S5_T1_EE@PLT
	movq	%rax, %rdx
	leaq	.LC19(%rip), %rax
	movq	%rax, %rsi
	movq	%rdx, %rdi
	call	_ZStlsISt11char_traitsIcEERSt13basic_ostreamIcT_ES5_PKc@PLT
	movq	%rax, %rdx
	movq	-632(%rbp), %rax
	addq	$96, %rax
	movq	%rax, %rsi
	movq	%rdx, %rdi
	call	_ZStlsIcSt11char_traitsIcESaIcEERSt13basic_ostreamIT_T0_ES7_RKNSt7__cxx1112basic_stringIS4_S5_T1_EE@PLT
	movq	%rax, %rdx
	leaq	.LC20(%rip), %rax
	movq	%rax, %rsi
	movq	%rdx, %rdi
	call	_ZStlsISt11char_traitsIcEERSt13basic_ostreamIcT_ES5_PKc@PLT
	movq	%rax, %rdx
	movq	-632(%rbp), %rax
	subq	$-128, %rax
	movq	%rax, %rsi
	movq	%rdx, %rdi
	call	_ZStlsIcSt11char_traitsIcESaIcEERSt13basic_ostreamIT_T0_ES7_RKNSt7__cxx1112basic_stringIS4_S5_T1_EE@PLT
	movq	%rax, %rdx
	leaq	.LC21(%rip), %rax
	movq	%rax, %rsi
	movq	%rdx, %rdi
	call	_ZStlsISt11char_traitsIcEERSt13basic_ostreamIcT_ES5_PKc@PLT
	movq	%rax, %rdx
	movq	-632(%rbp), %rax
	addq	$160, %rax
	movq	%rax, %rsi
	movq	%rdx, %rdi
	call	_ZStlsIcSt11char_traitsIcESaIcEERSt13basic_ostreamIT_T0_ES7_RKNSt7__cxx1112basic_stringIS4_S5_T1_EE@PLT
	leaq	-544(%rbp), %rax
	movq	%rax, %rdi
	call	_ZNSt14basic_ofstreamIcSt11char_traitsIcEE5closeEv@PLT
.LEHE55:
	leaq	-544(%rbp), %rax
	movq	%rax, %rdi
	call	_ZNSt14basic_ofstreamIcSt11char_traitsIcEED1Ev@PLT
	movq	-24(%rbp), %rax
	subq	%fs:40, %rax
	je	.L155
	jmp	.L161
.L156:
	endbr64
	movq	%rax, %rbx
	leaq	-544(%rbp), %rax
	movq	%rax, %rdi
	call	_ZNSt7__cxx1112basic_stringIcSt11char_traitsIcESaIcEED1Ev@PLT
	movq	%rbx, %rax
	movq	%rax, %rdi
.LEHB56:
	call	_Unwind_Resume@PLT
.L157:
	endbr64
	movq	%rax, %rbx
	leaq	-544(%rbp), %rax
	movq	%rax, %rdi
	call	_ZNSt7__cxx1112basic_stringIcSt11char_traitsIcESaIcEED1Ev@PLT
	movq	%rbx, %rax
	movq	%rax, %rdi
	call	_Unwind_Resume@PLT
.L158:
	endbr64
	movq	%rax, %rbx
	leaq	-576(%rbp), %rax
	movq	%rax, %rdi
	call	_ZNSt7__cxx1112basic_stringIcSt11char_traitsIcESaIcEED1Ev@PLT
	movq	%rbx, %rax
	movq	%rax, %rdi
	call	_Unwind_Resume@PLT
.L159:
	endbr64
	movq	%rax, %rbx
	leaq	-544(%rbp), %rax
	movq	%rax, %rdi
	call	_ZNSt7__cxx1112basic_stringIcSt11char_traitsIcESaIcEED1Ev@PLT
	movq	%rbx, %rax
	movq	%rax, %rdi
	call	_Unwind_Resume@PLT
.L160:
	endbr64
	movq	%rax, %rbx
	leaq	-544(%rbp), %rax
	movq	%rax, %rdi
	call	_ZNSt14basic_ofstreamIcSt11char_traitsIcEED1Ev@PLT
	movq	%rbx, %rax
	movq	%rax, %rdi
	call	_Unwind_Resume@PLT
.LEHE56:
.L161:
	call	__stack_chk_fail@PLT
.L155:
	addq	$624, %rsp
	popq	%rbx
	popq	%r12
	popq	%rbp
	.cfi_def_cfa 7, 8
	ret
	.cfi_endproc
.LFE5044:
	.section	.gcc_except_table
.LLSDA5044:
	.byte	0xff
	.byte	0xff
	.byte	0x1
	.uleb128 .LLSDACSE5044-.LLSDACSB5044
.LLSDACSB5044:
	.uleb128 .LEHB46-.LFB5044
	.uleb128 .LEHE46-.LEHB46
	.uleb128 0
	.uleb128 0
	.uleb128 .LEHB47-.LFB5044
	.uleb128 .LEHE47-.LEHB47
	.uleb128 .L156-.LFB5044
	.uleb128 0
	.uleb128 .LEHB48-.LFB5044
	.uleb128 .LEHE48-.LEHB48
	.uleb128 0
	.uleb128 0
	.uleb128 .LEHB49-.LFB5044
	.uleb128 .LEHE49-.LEHB49
	.uleb128 .L157-.LFB5044
	.uleb128 0
	.uleb128 .LEHB50-.LFB5044
	.uleb128 .LEHE50-.LEHB50
	.uleb128 0
	.uleb128 0
	.uleb128 .LEHB51-.LFB5044
	.uleb128 .LEHE51-.LEHB51
	.uleb128 .L158-.LFB5044
	.uleb128 0
	.uleb128 .LEHB52-.LFB5044
	.uleb128 .LEHE52-.LEHB52
	.uleb128 0
	.uleb128 0
	.uleb128 .LEHB53-.LFB5044
	.uleb128 .LEHE53-.LEHB53
	.uleb128 .L159-.LFB5044
	.uleb128 0
	.uleb128 .LEHB54-.LFB5044
	.uleb128 .LEHE54-.LEHB54
	.uleb128 0
	.uleb128 0
	.uleb128 .LEHB55-.LFB5044
	.uleb128 .LEHE55-.LEHB55
	.uleb128 .L160-.LFB5044
	.uleb128 0
	.uleb128 .LEHB56-.LFB5044
	.uleb128 .LEHE56-.LEHB56
	.uleb128 0
	.uleb128 0
.LLSDACSE5044:
	.section	.text._ZN11Kredit_Card8add_cardEv,"axG",@progbits,_ZN11Kredit_Card8add_cardEv,comdat
	.size	_ZN11Kredit_Card8add_cardEv, .-_ZN11Kredit_Card8add_cardEv
	.section	.text._ZN11Kredit_CardD2Ev,"axG",@progbits,_ZN11Kredit_CardD5Ev,comdat
	.align 2
	.weak	_ZN11Kredit_CardD2Ev
	.type	_ZN11Kredit_CardD2Ev, @function
_ZN11Kredit_CardD2Ev:
.LFB5050:
	.cfi_startproc
	endbr64
	pushq	%rbp
	.cfi_def_cfa_offset 16
	.cfi_offset 6, -16
	movq	%rsp, %rbp
	.cfi_def_cfa_register 6
	subq	$16, %rsp
	movq	%rdi, -8(%rbp)
	movq	-8(%rbp), %rax
	addq	$160, %rax
	movq	%rax, %rdi
	call	_ZNSt7__cxx1112basic_stringIcSt11char_traitsIcESaIcEED1Ev@PLT
	movq	-8(%rbp), %rax
	subq	$-128, %rax
	movq	%rax, %rdi
	call	_ZNSt7__cxx1112basic_stringIcSt11char_traitsIcESaIcEED1Ev@PLT
	movq	-8(%rbp), %rax
	addq	$96, %rax
	movq	%rax, %rdi
	call	_ZNSt7__cxx1112basic_stringIcSt11char_traitsIcESaIcEED1Ev@PLT
	movq	-8(%rbp), %rax
	addq	$64, %rax
	movq	%rax, %rdi
	call	_ZNSt7__cxx1112basic_stringIcSt11char_traitsIcESaIcEED1Ev@PLT
	movq	-8(%rbp), %rax
	addq	$32, %rax
	movq	%rax, %rdi
	call	_ZNSt7__cxx1112basic_stringIcSt11char_traitsIcESaIcEED1Ev@PLT
	movq	-8(%rbp), %rax
	movq	%rax, %rdi
	call	_ZNSt7__cxx1112basic_stringIcSt11char_traitsIcESaIcEED1Ev@PLT
	nop
	leave
	.cfi_def_cfa 7, 8
	ret
	.cfi_endproc
.LFE5050:
	.size	_ZN11Kredit_CardD2Ev, .-_ZN11Kredit_CardD2Ev
	.weak	_ZN11Kredit_CardD1Ev
	.set	_ZN11Kredit_CardD1Ev,_ZN11Kredit_CardD2Ev
	.section	.text._ZN6WalletC2Ev,"axG",@progbits,_ZN6WalletC5Ev,comdat
	.align 2
	.weak	_ZN6WalletC2Ev
	.type	_ZN6WalletC2Ev, @function
_ZN6WalletC2Ev:
.LFB5052:
	.cfi_startproc
	endbr64
	pushq	%rbp
	.cfi_def_cfa_offset 16
	.cfi_offset 6, -16
	movq	%rsp, %rbp
	.cfi_def_cfa_register 6
	subq	$16, %rsp
	movq	%rdi, -8(%rbp)
	movq	-8(%rbp), %rax
	movq	%rax, %rdi
	call	_ZN11Kredit_CardC2Ev
	movq	-8(%rbp), %rax
	movl	$0, 192(%rax)
	nop
	leave
	.cfi_def_cfa 7, 8
	ret
	.cfi_endproc
.LFE5052:
	.size	_ZN6WalletC2Ev, .-_ZN6WalletC2Ev
	.weak	_ZN6WalletC1Ev
	.set	_ZN6WalletC1Ev,_ZN6WalletC2Ev
	.section	.rodata
.LC22:
	.string	"Doxod.txt"
.LC23:
	.string	"\n\320\222\320\222\320\236\320\224 \320\224\320\236\320\245\320\236\320\224\320\236\320\222!!!\n"
	.align 8
.LC24:
	.string	"\320\222\320\262\320\265\320\264\320\270\321\202\320\265 \321\201\321\203\320\274\320\274\321\203(\320\262 \321\200\321\203\320\261\320\273\321\217\321\205): "
	.align 8
.LC25:
	.string	"\320\222\321\213\320\261\320\265\321\200\320\270\321\202\320\265 \320\272\320\260\321\202\320\265\320\263\320\276\321\200\320\270\321\216 \320\264\320\273\321\217 \320\264\320\276\321\205\320\276\320\264\320\260 "
.LC26:
	.string	"\n1 - \320\227\320\260\321\200\320\277\320\273\320\260\321\202\320\260 "
.LC27:
	.string	"\n2 - \320\237\320\276\320\264\320\260\321\200\320\276\320\272 "
.LC28:
	.string	"\n3 - \320\237\320\265\320\275\321\201\320\270\321\217 "
.LC29:
	.string	"\n4 - \320\224\321\200\321\203\320\263\320\276\320\265 \n"
	.align 8
.LC30:
	.string	"\n\320\241\321\207\320\265\321\202 \321\203\320\262\320\265\320\273\320\270\321\207\320\265\320\275 \320\275\320\260 "
	.align 8
.LC31:
	.string	" \320\262\321\200\320\265\320\274\321\217 \320\267\320\260\320\277\320\270\321\201\320\270 \321\203\320\262\320\265\320\273\320\270\321\207\320\265\320\275\320\270\320\265 \320\261\320\260\320\273\320\260\320\275\321\201\320\260: "
.LC32:
	.string	"\320\272\320\260\321\202\320\265\320\263\320\276\321\200\320\270\321\217:  "
.LC33:
	.string	"  "
.LC34:
	.string	"wallet.txt"
	.section	.text._ZN6Wallet6incomeEv,"axG",@progbits,_ZN6Wallet6incomeEv,comdat
	.align 2
	.weak	_ZN6Wallet6incomeEv
	.type	_ZN6Wallet6incomeEv, @function
_ZN6Wallet6incomeEv:
.LFB5055:
	.cfi_startproc
	.cfi_personality 0x9b,DW.ref.__gxx_personality_v0
	.cfi_lsda 0x1b,.LLSDA5055
	endbr64
	pushq	%rbp
	.cfi_def_cfa_offset 16
	.cfi_offset 6, -16
	movq	%rsp, %rbp
	.cfi_def_cfa_register 6
	pushq	%rbx
	subq	$1640, %rsp
	.cfi_offset 3, -24
	movq	%rdi, -1640(%rbp)
	movq	%fs:40, %rax
	movq	%rax, -24(%rbp)
	xorl	%eax, %eax
	leaq	-1600(%rbp), %rax
	movq	%rax, %rdi
.LEHB57:
	call	_ZNSt14basic_ofstreamIcSt11char_traitsIcEEC1Ev@PLT
.LEHE57:
	leaq	-1600(%rbp), %rax
	movl	$1, %edx
	leaq	.LC22(%rip), %rcx
	movq	%rcx, %rsi
	movq	%rax, %rdi
.LEHB58:
	call	_ZNSt14basic_ofstreamIcSt11char_traitsIcEE4openEPKcSt13_Ios_Openmode@PLT
	movl	$0, %edi
	call	time@PLT
	movq	%rax, -1624(%rbp)
	leaq	-1624(%rbp), %rax
	movq	%rax, %rdi
	call	ctime@PLT
	movq	%rax, -1616(%rbp)
	leaq	-1624(%rbp), %rax
	movq	%rax, %rdi
	call	gmtime@PLT
	movq	%rax, -1608(%rbp)
	movq	-1608(%rbp), %rax
	movq	%rax, %rdi
	call	asctime@PLT
	movq	%rax, -1616(%rbp)
	leaq	.LC23(%rip), %rax
	movq	%rax, %rsi
	leaq	_ZSt4cout(%rip), %rax
	movq	%rax, %rdi
	call	_ZStlsISt11char_traitsIcEERSt13basic_ostreamIcT_ES5_PKc@PLT
	leaq	.LC24(%rip), %rax
	movq	%rax, %rsi
	leaq	_ZSt4cout(%rip), %rax
	movq	%rax, %rdi
	call	_ZStlsISt11char_traitsIcEERSt13basic_ostreamIcT_ES5_PKc@PLT
	leaq	-1632(%rbp), %rax
	movq	%rax, %rsi
	leaq	_ZSt3cin(%rip), %rax
	movq	%rax, %rdi
	call	_ZNSirsERi@PLT
	leaq	.LC25(%rip), %rax
	movq	%rax, %rsi
	leaq	_ZSt4cout(%rip), %rax
	movq	%rax, %rdi
	call	_ZStlsISt11char_traitsIcEERSt13basic_ostreamIcT_ES5_PKc@PLT
	leaq	.LC26(%rip), %rax
	movq	%rax, %rsi
	leaq	_ZSt4cout(%rip), %rax
	movq	%rax, %rdi
	call	_ZStlsISt11char_traitsIcEERSt13basic_ostreamIcT_ES5_PKc@PLT
	leaq	.LC27(%rip), %rax
	movq	%rax, %rsi
	leaq	_ZSt4cout(%rip), %rax
	movq	%rax, %rdi
	call	_ZStlsISt11char_traitsIcEERSt13basic_ostreamIcT_ES5_PKc@PLT
	leaq	.LC28(%rip), %rax
	movq	%rax, %rsi
	leaq	_ZSt4cout(%rip), %rax
	movq	%rax, %rdi
	call	_ZStlsISt11char_traitsIcEERSt13basic_ostreamIcT_ES5_PKc@PLT
	leaq	.LC29(%rip), %rax
	movq	%rax, %rsi
	leaq	_ZSt4cout(%rip), %rax
	movq	%rax, %rdi
	call	_ZStlsISt11char_traitsIcEERSt13basic_ostreamIcT_ES5_PKc@PLT
	leaq	-1628(%rbp), %rax
	movq	%rax, %rsi
	leaq	_ZSt3cin(%rip), %rax
	movq	%rax, %rdi
	call	_ZNSirsERi@PLT
	movl	-1628(%rbp), %eax
	cmpl	$4, %eax
	je	.L165
	cmpl	$4, %eax
	jg	.L166
	cmpl	$3, %eax
	je	.L167
	cmpl	$3, %eax
	jg	.L166
	cmpl	$1, %eax
	je	.L168
	cmpl	$2, %eax
	je	.L169
	jmp	.L166
.L168:
	movabsq	$-4625055179206518832, %rax
	movabsq	$-5705916890752173104, %rdx
	movq	%rax, -48(%rbp)
	movq	%rdx, -40(%rbp)
	movb	$0, -32(%rbp)
	leaq	-1600(%rbp), %rax
	leaq	.LC30(%rip), %rdx
	movq	%rdx, %rsi
	movq	%rax, %rdi
	call	_ZStlsISt11char_traitsIcEERSt13basic_ostreamIcT_ES5_PKc@PLT
	movq	%rax, %rdx
	movl	-1632(%rbp), %eax
	movl	%eax, %esi
	movq	%rdx, %rdi
	call	_ZNSolsEi@PLT
	movq	%rax, %rdx
	leaq	.LC31(%rip), %rax
	movq	%rax, %rsi
	movq	%rdx, %rdi
	call	_ZStlsISt11char_traitsIcEERSt13basic_ostreamIcT_ES5_PKc@PLT
	movq	%rax, %rdx
	movq	-1616(%rbp), %rax
	movq	%rax, %rsi
	movq	%rdx, %rdi
	call	_ZStlsISt11char_traitsIcEERSt13basic_ostreamIcT_ES5_PKc@PLT
	movq	%rax, %rdx
	leaq	.LC32(%rip), %rax
	movq	%rax, %rsi
	movq	%rdx, %rdi
	call	_ZStlsISt11char_traitsIcEERSt13basic_ostreamIcT_ES5_PKc@PLT
	movq	%rax, %rdx
	leaq	-48(%rbp), %rax
	movq	%rax, %rsi
	movq	%rdx, %rdi
	call	_ZStlsISt11char_traitsIcEERSt13basic_ostreamIcT_ES5_PKc@PLT
	movq	%rax, %rdx
	leaq	.LC33(%rip), %rax
	movq	%rax, %rsi
	movq	%rdx, %rdi
	call	_ZStlsISt11char_traitsIcEERSt13basic_ostreamIcT_ES5_PKc@PLT
	movq	%rax, %rdx
	movl	-1632(%rbp), %eax
	movl	%eax, %esi
	movq	%rdx, %rdi
	call	_ZNSolsEi@PLT
	jmp	.L166
.L169:
	movabsq	$-5705861919230877744, %rax
	movq	%rax, -48(%rbp)
	movl	$-1093631791, -40(%rbp)
	movw	$-17712, -36(%rbp)
	movb	$0, -34(%rbp)
	leaq	-1600(%rbp), %rax
	leaq	.LC30(%rip), %rdx
	movq	%rdx, %rsi
	movq	%rax, %rdi
	call	_ZStlsISt11char_traitsIcEERSt13basic_ostreamIcT_ES5_PKc@PLT
	movq	%rax, %rdx
	movl	-1632(%rbp), %eax
	movl	%eax, %esi
	movq	%rdx, %rdi
	call	_ZNSolsEi@PLT
	movq	%rax, %rdx
	leaq	.LC31(%rip), %rax
	movq	%rax, %rsi
	movq	%rdx, %rdi
	call	_ZStlsISt11char_traitsIcEERSt13basic_ostreamIcT_ES5_PKc@PLT
	movq	%rax, %rdx
	movq	-1616(%rbp), %rax
	movq	%rax, %rsi
	movq	%rdx, %rdi
	call	_ZStlsISt11char_traitsIcEERSt13basic_ostreamIcT_ES5_PKc@PLT
	movq	%rax, %rdx
	leaq	.LC32(%rip), %rax
	movq	%rax, %rsi
	movq	%rdx, %rdi
	call	_ZStlsISt11char_traitsIcEERSt13basic_ostreamIcT_ES5_PKc@PLT
	movq	%rax, %rdx
	leaq	-48(%rbp), %rax
	movq	%rax, %rsi
	movq	%rdx, %rdi
	call	_ZStlsISt11char_traitsIcEERSt13basic_ostreamIcT_ES5_PKc@PLT
	movq	%rax, %rdx
	leaq	.LC33(%rip), %rax
	movq	%rax, %rsi
	movq	%rdx, %rdi
	call	_ZStlsISt11char_traitsIcEERSt13basic_ostreamIcT_ES5_PKc@PLT
	movq	%rax, %rdx
	movl	-1632(%rbp), %eax
	movl	%eax, %esi
	movq	%rdx, %rdi
	call	_ZNSolsEi@PLT
	jmp	.L166
.L167:
	movabsq	$-9092277468583125040, %rax
	movq	%rax, -48(%rbp)
	movl	$-1882081072, -40(%rbp)
	movb	$0, -36(%rbp)
	leaq	-1600(%rbp), %rax
	leaq	.LC30(%rip), %rdx
	movq	%rdx, %rsi
	movq	%rax, %rdi
	call	_ZStlsISt11char_traitsIcEERSt13basic_ostreamIcT_ES5_PKc@PLT
	movq	%rax, %rdx
	movl	-1632(%rbp), %eax
	movl	%eax, %esi
	movq	%rdx, %rdi
	call	_ZNSolsEi@PLT
	movq	%rax, %rdx
	leaq	.LC31(%rip), %rax
	movq	%rax, %rsi
	movq	%rdx, %rdi
	call	_ZStlsISt11char_traitsIcEERSt13basic_ostreamIcT_ES5_PKc@PLT
	movq	%rax, %rdx
	movq	-1616(%rbp), %rax
	movq	%rax, %rsi
	movq	%rdx, %rdi
	call	_ZStlsISt11char_traitsIcEERSt13basic_ostreamIcT_ES5_PKc@PLT
	movq	%rax, %rdx
	leaq	.LC32(%rip), %rax
	movq	%rax, %rsi
	movq	%rdx, %rdi
	call	_ZStlsISt11char_traitsIcEERSt13basic_ostreamIcT_ES5_PKc@PLT
	movq	%rax, %rdx
	leaq	-48(%rbp), %rax
	movq	%rax, %rsi
	movq	%rdx, %rdi
	call	_ZStlsISt11char_traitsIcEERSt13basic_ostreamIcT_ES5_PKc@PLT
	movq	%rax, %rdx
	leaq	.LC33(%rip), %rax
	movq	%rax, %rsi
	movq	%rdx, %rdi
	call	_ZStlsISt11char_traitsIcEERSt13basic_ostreamIcT_ES5_PKc@PLT
	movq	%rax, %rdx
	movl	-1632(%rbp), %eax
	movl	%eax, %esi
	movq	%rdx, %rdi
	call	_ZNSolsEi@PLT
	jmp	.L166
.L165:
	movabsq	$-5489743009932012336, %rax
	movq	%rax, -48(%rbp)
	movl	$-1244610864, -40(%rbp)
	movb	$0, -36(%rbp)
	leaq	-1600(%rbp), %rax
	leaq	.LC30(%rip), %rdx
	movq	%rdx, %rsi
	movq	%rax, %rdi
	call	_ZStlsISt11char_traitsIcEERSt13basic_ostreamIcT_ES5_PKc@PLT
	movq	%rax, %rdx
	movl	-1632(%rbp), %eax
	movl	%eax, %esi
	movq	%rdx, %rdi
	call	_ZNSolsEi@PLT
	movq	%rax, %rdx
	leaq	.LC31(%rip), %rax
	movq	%rax, %rsi
	movq	%rdx, %rdi
	call	_ZStlsISt11char_traitsIcEERSt13basic_ostreamIcT_ES5_PKc@PLT
	movq	%rax, %rdx
	movq	-1616(%rbp), %rax
	movq	%rax, %rsi
	movq	%rdx, %rdi
	call	_ZStlsISt11char_traitsIcEERSt13basic_ostreamIcT_ES5_PKc@PLT
	movq	%rax, %rdx
	leaq	.LC32(%rip), %rax
	movq	%rax, %rsi
	movq	%rdx, %rdi
	call	_ZStlsISt11char_traitsIcEERSt13basic_ostreamIcT_ES5_PKc@PLT
	movq	%rax, %rdx
	leaq	-48(%rbp), %rax
	movq	%rax, %rsi
	movq	%rdx, %rdi
	call	_ZStlsISt11char_traitsIcEERSt13basic_ostreamIcT_ES5_PKc@PLT
	movq	%rax, %rdx
	leaq	.LC33(%rip), %rax
	movq	%rax, %rsi
	movq	%rdx, %rdi
	call	_ZStlsISt11char_traitsIcEERSt13basic_ostreamIcT_ES5_PKc@PLT
	movq	%rax, %rdx
	movl	-1632(%rbp), %eax
	movl	%eax, %esi
	movq	%rdx, %rdi
	call	_ZNSolsEi@PLT
.L166:
	leaq	-1600(%rbp), %rax
	movq	%rax, %rdi
	call	_ZNSt14basic_ofstreamIcSt11char_traitsIcEE5closeEv@PLT
	leaq	-576(%rbp), %rax
	movq	%rax, %rdi
	call	_ZNSt14basic_ifstreamIcSt11char_traitsIcEEC1Ev@PLT
.LEHE58:
	leaq	-576(%rbp), %rax
	movl	$8, %edx
	leaq	.LC34(%rip), %rcx
	movq	%rcx, %rsi
	movq	%rax, %rdi
.LEHB59:
	call	_ZNSt14basic_ifstreamIcSt11char_traitsIcEE4openEPKcSt13_Ios_Openmode@PLT
	movq	-1640(%rbp), %rax
	leaq	192(%rax), %rdx
	leaq	-576(%rbp), %rax
	movq	%rdx, %rsi
	movq	%rax, %rdi
	call	_ZNSirsERi@PLT
	leaq	-576(%rbp), %rax
	movq	%rax, %rdi
	call	_ZNSt14basic_ifstreamIcSt11char_traitsIcEE5closeEv@PLT
	movq	-1640(%rbp), %rax
	movl	192(%rax), %edx
	movl	-1632(%rbp), %eax
	addl	%eax, %edx
	movq	-1640(%rbp), %rax
	movl	%edx, 192(%rax)
	leaq	-1088(%rbp), %rax
	movq	%rax, %rdi
	call	_ZNSt14basic_ofstreamIcSt11char_traitsIcEEC1Ev@PLT
.LEHE59:
	leaq	-1088(%rbp), %rax
	movl	$16, %edx
	leaq	.LC34(%rip), %rcx
	movq	%rcx, %rsi
	movq	%rax, %rdi
.LEHB60:
	call	_ZNSt14basic_ofstreamIcSt11char_traitsIcEE4openEPKcSt13_Ios_Openmode@PLT
	movq	-1640(%rbp), %rax
	movl	192(%rax), %edx
	leaq	-1088(%rbp), %rax
	movl	%edx, %esi
	movq	%rax, %rdi
	call	_ZNSolsEi@PLT
	movq	_ZSt4endlIcSt11char_traitsIcEERSt13basic_ostreamIT_T0_ES6_@GOTPCREL(%rip), %rdx
	movq	%rdx, %rsi
	movq	%rax, %rdi
	call	_ZNSolsEPFRSoS_E@PLT
	leaq	-1088(%rbp), %rax
	movq	%rax, %rdi
	call	_ZNSt14basic_ofstreamIcSt11char_traitsIcEE5closeEv@PLT
.LEHE60:
	leaq	-1088(%rbp), %rax
	movq	%rax, %rdi
	call	_ZNSt14basic_ofstreamIcSt11char_traitsIcEED1Ev@PLT
	leaq	-576(%rbp), %rax
	movq	%rax, %rdi
	call	_ZNSt14basic_ifstreamIcSt11char_traitsIcEED1Ev@PLT
	leaq	-1600(%rbp), %rax
	movq	%rax, %rdi
	call	_ZNSt14basic_ofstreamIcSt11char_traitsIcEED1Ev@PLT
	movq	-24(%rbp), %rax
	subq	%fs:40, %rax
	je	.L173
	jmp	.L177
.L176:
	endbr64
	movq	%rax, %rbx
	leaq	-1088(%rbp), %rax
	movq	%rax, %rdi
	call	_ZNSt14basic_ofstreamIcSt11char_traitsIcEED1Ev@PLT
	jmp	.L171
.L175:
	endbr64
	movq	%rax, %rbx
.L171:
	leaq	-576(%rbp), %rax
	movq	%rax, %rdi
	call	_ZNSt14basic_ifstreamIcSt11char_traitsIcEED1Ev@PLT
	jmp	.L172
.L174:
	endbr64
	movq	%rax, %rbx
.L172:
	leaq	-1600(%rbp), %rax
	movq	%rax, %rdi
	call	_ZNSt14basic_ofstreamIcSt11char_traitsIcEED1Ev@PLT
	movq	%rbx, %rax
	movq	%rax, %rdi
.LEHB61:
	call	_Unwind_Resume@PLT
.LEHE61:
.L177:
	call	__stack_chk_fail@PLT
.L173:
	movq	-8(%rbp), %rbx
	leave
	.cfi_def_cfa 7, 8
	ret
	.cfi_endproc
.LFE5055:
	.section	.gcc_except_table
.LLSDA5055:
	.byte	0xff
	.byte	0xff
	.byte	0x1
	.uleb128 .LLSDACSE5055-.LLSDACSB5055
.LLSDACSB5055:
	.uleb128 .LEHB57-.LFB5055
	.uleb128 .LEHE57-.LEHB57
	.uleb128 0
	.uleb128 0
	.uleb128 .LEHB58-.LFB5055
	.uleb128 .LEHE58-.LEHB58
	.uleb128 .L174-.LFB5055
	.uleb128 0
	.uleb128 .LEHB59-.LFB5055
	.uleb128 .LEHE59-.LEHB59
	.uleb128 .L175-.LFB5055
	.uleb128 0
	.uleb128 .LEHB60-.LFB5055
	.uleb128 .LEHE60-.LEHB60
	.uleb128 .L176-.LFB5055
	.uleb128 0
	.uleb128 .LEHB61-.LFB5055
	.uleb128 .LEHE61-.LEHB61
	.uleb128 0
	.uleb128 0
.LLSDACSE5055:
	.section	.text._ZN6Wallet6incomeEv,"axG",@progbits,_ZN6Wallet6incomeEv,comdat
	.size	_ZN6Wallet6incomeEv, .-_ZN6Wallet6incomeEv
	.section	.rodata
.LC35:
	.string	" \n"
	.section	.text._ZN6Wallet12print_incomeEv,"axG",@progbits,_ZN6Wallet12print_incomeEv,comdat
	.align 2
	.weak	_ZN6Wallet12print_incomeEv
	.type	_ZN6Wallet12print_incomeEv, @function
_ZN6Wallet12print_incomeEv:
.LFB5056:
	.cfi_startproc
	.cfi_personality 0x9b,DW.ref.__gxx_personality_v0
	.cfi_lsda 0x1b,.LLSDA5056
	endbr64
	pushq	%rbp
	.cfi_def_cfa_offset 16
	.cfi_offset 6, -16
	movq	%rsp, %rbp
	.cfi_def_cfa_register 6
	pushq	%rbx
	subq	$648, %rsp
	.cfi_offset 3, -24
	movq	%rdi, -648(%rbp)
	movq	%fs:40, %rax
	movq	%rax, -24(%rbp)
	xorl	%eax, %eax
	leaq	-592(%rbp), %rax
	movq	%rax, %rdi
.LEHB62:
	call	_ZNSt14basic_ifstreamIcSt11char_traitsIcEEC1Ev@PLT
.LEHE62:
	leaq	-592(%rbp), %rax
	movl	$8, %edx
	leaq	.LC22(%rip), %rcx
	movq	%rcx, %rsi
	movq	%rax, %rdi
.LEHB63:
	call	_ZNSt14basic_ifstreamIcSt11char_traitsIcEE4openEPKcSt13_Ios_Openmode@PLT
.LEHE63:
	movl	$0, -628(%rbp)
	leaq	-624(%rbp), %rax
	movq	%rax, %rdi
	call	_ZNSt7__cxx1112basic_stringIcSt11char_traitsIcESaIcEEC1Ev@PLT
	jmp	.L179
.L180:
	leaq	-64(%rbp), %rdx
	leaq	-592(%rbp), %rax
	movq	%rdx, %rsi
	movq	%rax, %rdi
.LEHB64:
	call	_ZStrsIcSt11char_traitsIcEERSt13basic_istreamIT_T0_ES6_PS3_
	leaq	-64(%rbp), %rax
	movq	%rax, %rsi
	leaq	_ZSt4cout(%rip), %rax
	movq	%rax, %rdi
	call	_ZStlsISt11char_traitsIcEERSt13basic_ostreamIcT_ES5_PKc@PLT
	movq	%rax, %rdx
	leaq	.LC3(%rip), %rax
	movq	%rax, %rsi
	movq	%rdx, %rdi
	call	_ZStlsISt11char_traitsIcEERSt13basic_ostreamIcT_ES5_PKc@PLT
	addl	$1, -628(%rbp)
	movl	-628(%rbp), %edx
	movslq	%edx, %rax
	imulq	$-2004318071, %rax, %rax
	shrq	$32, %rax
	addl	%edx, %eax
	sarl	$3, %eax
	movl	%edx, %ecx
	sarl	$31, %ecx
	subl	%ecx, %eax
	movl	%eax, %ecx
	sall	$4, %ecx
	subl	%eax, %ecx
	movl	%edx, %eax
	subl	%ecx, %eax
	testl	%eax, %eax
	jne	.L179
	leaq	-624(%rbp), %rdx
	leaq	-592(%rbp), %rax
	movq	%rdx, %rsi
	movq	%rax, %rdi
	call	_ZStrsIcSt11char_traitsIcESaIcEERSt13basic_istreamIT_T0_ES7_RNSt7__cxx1112basic_stringIS4_S5_T1_EE@PLT
	leaq	-624(%rbp), %rax
	leaq	.LC1(%rip), %rdx
	movq	%rdx, %rsi
	movq	%rax, %rdi
	call	_ZNSt7__cxx1112basic_stringIcSt11char_traitsIcESaIcEEaSEPKc@PLT
	leaq	.LC35(%rip), %rax
	movq	%rax, %rsi
	leaq	_ZSt4cout(%rip), %rax
	movq	%rax, %rdi
	call	_ZStlsISt11char_traitsIcEERSt13basic_ostreamIcT_ES5_PKc@PLT
.L179:
	leaq	-592(%rbp), %rax
	addq	$256, %rax
	movq	%rax, %rdi
	call	_ZNKSt9basic_iosIcSt11char_traitsIcEE3eofEv@PLT
	xorl	$1, %eax
	testb	%al, %al
	jne	.L180
	leaq	-592(%rbp), %rax
	movq	%rax, %rdi
	call	_ZNSt14basic_ifstreamIcSt11char_traitsIcEE5closeEv@PLT
.LEHE64:
	leaq	-624(%rbp), %rax
	movq	%rax, %rdi
	call	_ZNSt7__cxx1112basic_stringIcSt11char_traitsIcESaIcEED1Ev@PLT
	leaq	-592(%rbp), %rax
	movq	%rax, %rdi
	call	_ZNSt14basic_ifstreamIcSt11char_traitsIcEED1Ev@PLT
	movq	-24(%rbp), %rax
	subq	%fs:40, %rax
	je	.L183
	jmp	.L186
.L185:
	endbr64
	movq	%rax, %rbx
	leaq	-624(%rbp), %rax
	movq	%rax, %rdi
	call	_ZNSt7__cxx1112basic_stringIcSt11char_traitsIcESaIcEED1Ev@PLT
	jmp	.L182
.L184:
	endbr64
	movq	%rax, %rbx
.L182:
	leaq	-592(%rbp), %rax
	movq	%rax, %rdi
	call	_ZNSt14basic_ifstreamIcSt11char_traitsIcEED1Ev@PLT
	movq	%rbx, %rax
	movq	%rax, %rdi
.LEHB65:
	call	_Unwind_Resume@PLT
.LEHE65:
.L186:
	call	__stack_chk_fail@PLT
.L183:
	movq	-8(%rbp), %rbx
	leave
	.cfi_def_cfa 7, 8
	ret
	.cfi_endproc
.LFE5056:
	.section	.gcc_except_table
.LLSDA5056:
	.byte	0xff
	.byte	0xff
	.byte	0x1
	.uleb128 .LLSDACSE5056-.LLSDACSB5056
.LLSDACSB5056:
	.uleb128 .LEHB62-.LFB5056
	.uleb128 .LEHE62-.LEHB62
	.uleb128 0
	.uleb128 0
	.uleb128 .LEHB63-.LFB5056
	.uleb128 .LEHE63-.LEHB63
	.uleb128 .L184-.LFB5056
	.uleb128 0
	.uleb128 .LEHB64-.LFB5056
	.uleb128 .LEHE64-.LEHB64
	.uleb128 .L185-.LFB5056
	.uleb128 0
	.uleb128 .LEHB65-.LFB5056
	.uleb128 .LEHE65-.LEHB65
	.uleb128 0
	.uleb128 0
.LLSDACSE5056:
	.section	.text._ZN6Wallet12print_incomeEv,"axG",@progbits,_ZN6Wallet12print_incomeEv,comdat
	.size	_ZN6Wallet12print_incomeEv, .-_ZN6Wallet12print_incomeEv
	.section	.rodata
.LC36:
	.string	"rasxod.txt"
	.align 8
.LC37:
	.string	"\320\221\320\260\320\273\320\260\320\275\321\201 \320\272\320\276\321\210\320\265\320\273\321\214\320\272\320\260: "
	.section	.text._ZN6Wallet6balnceEv,"axG",@progbits,_ZN6Wallet6balnceEv,comdat
	.align 2
	.weak	_ZN6Wallet6balnceEv
	.type	_ZN6Wallet6balnceEv, @function
_ZN6Wallet6balnceEv:
.LFB5057:
	.cfi_startproc
	.cfi_personality 0x9b,DW.ref.__gxx_personality_v0
	.cfi_lsda 0x1b,.LLSDA5057
	endbr64
	pushq	%rbp
	.cfi_def_cfa_offset 16
	.cfi_offset 6, -16
	movq	%rsp, %rbp
	.cfi_def_cfa_register 6
	pushq	%rbx
	subq	$1672, %rsp
	.cfi_offset 3, -24
	movq	%rdi, -1672(%rbp)
	movq	%fs:40, %rax
	movq	%rax, -24(%rbp)
	xorl	%eax, %eax
	leaq	-1664(%rbp), %rax
	movq	%rax, %rdi
	call	_ZNSt7__cxx1112basic_stringIcSt11char_traitsIcESaIcEEC1Ev@PLT
	leaq	-1632(%rbp), %rax
	movq	%rax, %rdi
	call	_ZNSt7__cxx1112basic_stringIcSt11char_traitsIcESaIcEEC1Ev@PLT
	leaq	-1600(%rbp), %rax
	movq	%rax, %rdi
.LEHB66:
	call	_ZNSt14basic_ifstreamIcSt11char_traitsIcEEC1Ev@PLT
.LEHE66:
	leaq	-1600(%rbp), %rax
	movl	$8, %edx
	leaq	.LC22(%rip), %rcx
	movq	%rcx, %rsi
	movq	%rax, %rdi
.LEHB67:
	call	_ZNSt14basic_ifstreamIcSt11char_traitsIcEE4openEPKcSt13_Ios_Openmode@PLT
	leaq	-1664(%rbp), %rdx
	leaq	-1600(%rbp), %rax
	movq	%rdx, %rsi
	movq	%rax, %rdi
	call	_ZStrsIcSt11char_traitsIcESaIcEERSt13basic_istreamIT_T0_ES7_RNSt7__cxx1112basic_stringIS4_S5_T1_EE@PLT
	leaq	-1600(%rbp), %rax
	movq	%rax, %rdi
	call	_ZNSt14basic_ifstreamIcSt11char_traitsIcEE5closeEv@PLT
	leaq	-1072(%rbp), %rax
	movq	%rax, %rdi
	call	_ZNSt14basic_ifstreamIcSt11char_traitsIcEEC1Ev@PLT
.LEHE67:
	leaq	-1072(%rbp), %rax
	movl	$8, %edx
	leaq	.LC36(%rip), %rcx
	movq	%rcx, %rsi
	movq	%rax, %rdi
.LEHB68:
	call	_ZNSt14basic_ifstreamIcSt11char_traitsIcEE4openEPKcSt13_Ios_Openmode@PLT
	leaq	-1632(%rbp), %rdx
	leaq	-1072(%rbp), %rax
	movq	%rdx, %rsi
	movq	%rax, %rdi
	call	_ZStrsIcSt11char_traitsIcESaIcEERSt13basic_istreamIT_T0_ES7_RNSt7__cxx1112basic_stringIS4_S5_T1_EE@PLT
	leaq	-1072(%rbp), %rax
	movq	%rax, %rdi
	call	_ZNSt14basic_ifstreamIcSt11char_traitsIcEE5closeEv@PLT
	leaq	-1664(%rbp), %rax
	movq	%rax, %rdi
	call	_ZNKSt7__cxx1112basic_stringIcSt11char_traitsIcESaIcEE5emptyEv@PLT
	xorl	$1, %eax
	testb	%al, %al
	jne	.L188
	leaq	-1632(%rbp), %rax
	movq	%rax, %rdi
	call	_ZNKSt7__cxx1112basic_stringIcSt11char_traitsIcESaIcEE5emptyEv@PLT
	xorl	$1, %eax
	testb	%al, %al
	je	.L189
.L188:
	movl	$1, %eax
	jmp	.L190
.L189:
	movl	$0, %eax
.L190:
	testb	%al, %al
	je	.L191
	leaq	-544(%rbp), %rax
	movq	%rax, %rdi
	call	_ZNSt14basic_ifstreamIcSt11char_traitsIcEEC1Ev@PLT
.LEHE68:
	leaq	-544(%rbp), %rax
	movl	$8, %edx
	leaq	.LC34(%rip), %rcx
	movq	%rcx, %rsi
	movq	%rax, %rdi
.LEHB69:
	call	_ZNSt14basic_ifstreamIcSt11char_traitsIcEE4openEPKcSt13_Ios_Openmode@PLT
	movq	-1672(%rbp), %rax
	leaq	192(%rax), %rdx
	leaq	-544(%rbp), %rax
	movq	%rdx, %rsi
	movq	%rax, %rdi
	call	_ZNSirsERi@PLT
	leaq	-544(%rbp), %rax
	movq	%rax, %rdi
	call	_ZNSt14basic_ifstreamIcSt11char_traitsIcEE5closeEv@PLT
	leaq	.LC37(%rip), %rax
	movq	%rax, %rsi
	leaq	_ZSt4cout(%rip), %rax
	movq	%rax, %rdi
	call	_ZStlsISt11char_traitsIcEERSt13basic_ostreamIcT_ES5_PKc@PLT
	movq	%rax, %rdx
	movq	-1672(%rbp), %rax
	movl	192(%rax), %eax
	movl	%eax, %esi
	movq	%rdx, %rdi
	call	_ZNSolsEi@PLT
	movq	_ZSt4endlIcSt11char_traitsIcEERSt13basic_ostreamIT_T0_ES6_@GOTPCREL(%rip), %rdx
	movq	%rdx, %rsi
	movq	%rax, %rdi
	call	_ZNSolsEPFRSoS_E@PLT
.LEHE69:
	leaq	-544(%rbp), %rax
	movq	%rax, %rdi
	call	_ZNSt14basic_ifstreamIcSt11char_traitsIcEED1Ev@PLT
	jmp	.L192
.L191:
	movq	-1672(%rbp), %rax
	movl	$0, 192(%rax)
	leaq	-544(%rbp), %rax
	movq	%rax, %rdi
.LEHB70:
	call	_ZNSt14basic_ofstreamIcSt11char_traitsIcEEC1Ev@PLT
.LEHE70:
	leaq	-544(%rbp), %rax
	movl	$16, %edx
	leaq	.LC34(%rip), %rcx
	movq	%rcx, %rsi
	movq	%rax, %rdi
.LEHB71:
	call	_ZNSt14basic_ofstreamIcSt11char_traitsIcEE4openEPKcSt13_Ios_Openmode@PLT
	movq	-1672(%rbp), %rax
	movl	192(%rax), %edx
	leaq	-544(%rbp), %rax
	movl	%edx, %esi
	movq	%rax, %rdi
	call	_ZNSolsEi@PLT
	leaq	-544(%rbp), %rax
	movq	%rax, %rdi
	call	_ZNSt14basic_ofstreamIcSt11char_traitsIcEE5closeEv@PLT
	leaq	.LC37(%rip), %rax
	movq	%rax, %rsi
	leaq	_ZSt4cout(%rip), %rax
	movq	%rax, %rdi
	call	_ZStlsISt11char_traitsIcEERSt13basic_ostreamIcT_ES5_PKc@PLT
	movq	%rax, %rdx
	movq	-1672(%rbp), %rax
	movl	192(%rax), %eax
	movl	%eax, %esi
	movq	%rdx, %rdi
	call	_ZNSolsEi@PLT
	movq	_ZSt4endlIcSt11char_traitsIcEERSt13basic_ostreamIT_T0_ES6_@GOTPCREL(%rip), %rdx
	movq	%rdx, %rsi
	movq	%rax, %rdi
	call	_ZNSolsEPFRSoS_E@PLT
.LEHE71:
	leaq	-544(%rbp), %rax
	movq	%rax, %rdi
	call	_ZNSt14basic_ofstreamIcSt11char_traitsIcEED1Ev@PLT
.L192:
	leaq	-1072(%rbp), %rax
	movq	%rax, %rdi
	call	_ZNSt14basic_ifstreamIcSt11char_traitsIcEED1Ev@PLT
	leaq	-1600(%rbp), %rax
	movq	%rax, %rdi
	call	_ZNSt14basic_ifstreamIcSt11char_traitsIcEED1Ev@PLT
	leaq	-1632(%rbp), %rax
	movq	%rax, %rdi
	call	_ZNSt7__cxx1112basic_stringIcSt11char_traitsIcESaIcEED1Ev@PLT
	leaq	-1664(%rbp), %rax
	movq	%rax, %rdi
	call	_ZNSt7__cxx1112basic_stringIcSt11char_traitsIcESaIcEED1Ev@PLT
	movq	-24(%rbp), %rax
	subq	%fs:40, %rax
	je	.L198
	jmp	.L204
.L202:
	endbr64
	movq	%rax, %rbx
	leaq	-544(%rbp), %rax
	movq	%rax, %rdi
	call	_ZNSt14basic_ifstreamIcSt11char_traitsIcEED1Ev@PLT
	jmp	.L194
.L203:
	endbr64
	movq	%rax, %rbx
	leaq	-544(%rbp), %rax
	movq	%rax, %rdi
	call	_ZNSt14basic_ofstreamIcSt11char_traitsIcEED1Ev@PLT
	jmp	.L194
.L201:
	endbr64
	movq	%rax, %rbx
.L194:
	leaq	-1072(%rbp), %rax
	movq	%rax, %rdi
	call	_ZNSt14basic_ifstreamIcSt11char_traitsIcEED1Ev@PLT
	jmp	.L196
.L200:
	endbr64
	movq	%rax, %rbx
.L196:
	leaq	-1600(%rbp), %rax
	movq	%rax, %rdi
	call	_ZNSt14basic_ifstreamIcSt11char_traitsIcEED1Ev@PLT
	jmp	.L197
.L199:
	endbr64
	movq	%rax, %rbx
.L197:
	leaq	-1632(%rbp), %rax
	movq	%rax, %rdi
	call	_ZNSt7__cxx1112basic_stringIcSt11char_traitsIcESaIcEED1Ev@PLT
	leaq	-1664(%rbp), %rax
	movq	%rax, %rdi
	call	_ZNSt7__cxx1112basic_stringIcSt11char_traitsIcESaIcEED1Ev@PLT
	movq	%rbx, %rax
	movq	%rax, %rdi
.LEHB72:
	call	_Unwind_Resume@PLT
.LEHE72:
.L204:
	call	__stack_chk_fail@PLT
.L198:
	movq	-8(%rbp), %rbx
	leave
	.cfi_def_cfa 7, 8
	ret
	.cfi_endproc
.LFE5057:
	.section	.gcc_except_table
.LLSDA5057:
	.byte	0xff
	.byte	0xff
	.byte	0x1
	.uleb128 .LLSDACSE5057-.LLSDACSB5057
.LLSDACSB5057:
	.uleb128 .LEHB66-.LFB5057
	.uleb128 .LEHE66-.LEHB66
	.uleb128 .L199-.LFB5057
	.uleb128 0
	.uleb128 .LEHB67-.LFB5057
	.uleb128 .LEHE67-.LEHB67
	.uleb128 .L200-.LFB5057
	.uleb128 0
	.uleb128 .LEHB68-.LFB5057
	.uleb128 .LEHE68-.LEHB68
	.uleb128 .L201-.LFB5057
	.uleb128 0
	.uleb128 .LEHB69-.LFB5057
	.uleb128 .LEHE69-.LEHB69
	.uleb128 .L202-.LFB5057
	.uleb128 0
	.uleb128 .LEHB70-.LFB5057
	.uleb128 .LEHE70-.LEHB70
	.uleb128 .L201-.LFB5057
	.uleb128 0
	.uleb128 .LEHB71-.LFB5057
	.uleb128 .LEHE71-.LEHB71
	.uleb128 .L203-.LFB5057
	.uleb128 0
	.uleb128 .LEHB72-.LFB5057
	.uleb128 .LEHE72-.LEHB72
	.uleb128 0
	.uleb128 0
.LLSDACSE5057:
	.section	.text._ZN6Wallet6balnceEv,"axG",@progbits,_ZN6Wallet6balnceEv,comdat
	.size	_ZN6Wallet6balnceEv, .-_ZN6Wallet6balnceEv
	.section	.text._ZNSt8_Rb_treeINSt7__cxx1112basic_stringIcSt11char_traitsIcESaIcEEESt4pairIKS5_iESt10_Select1stIS8_ESt4lessIS5_ESaIS8_EE13_Rb_tree_implISC_Lb1EED2Ev,"axG",@progbits,_ZNSt8_Rb_treeINSt7__cxx1112basic_stringIcSt11char_traitsIcESaIcEEESt4pairIKS5_iESt10_Select1stIS8_ESt4lessIS5_ESaIS8_EE13_Rb_tree_implISC_Lb1EED5Ev,comdat
	.align 2
	.weak	_ZNSt8_Rb_treeINSt7__cxx1112basic_stringIcSt11char_traitsIcESaIcEEESt4pairIKS5_iESt10_Select1stIS8_ESt4lessIS5_ESaIS8_EE13_Rb_tree_implISC_Lb1EED2Ev
	.type	_ZNSt8_Rb_treeINSt7__cxx1112basic_stringIcSt11char_traitsIcESaIcEEESt4pairIKS5_iESt10_Select1stIS8_ESt4lessIS5_ESaIS8_EE13_Rb_tree_implISC_Lb1EED2Ev, @function
_ZNSt8_Rb_treeINSt7__cxx1112basic_stringIcSt11char_traitsIcESaIcEEESt4pairIKS5_iESt10_Select1stIS8_ESt4lessIS5_ESaIS8_EE13_Rb_tree_implISC_Lb1EED2Ev:
.LFB5065:
	.cfi_startproc
	endbr64
	pushq	%rbp
	.cfi_def_cfa_offset 16
	.cfi_offset 6, -16
	movq	%rsp, %rbp
	.cfi_def_cfa_register 6
	subq	$16, %rsp
	movq	%rdi, -8(%rbp)
	movq	-8(%rbp), %rax
	movq	%rax, %rdi
	call	_ZNSaISt13_Rb_tree_nodeISt4pairIKNSt7__cxx1112basic_stringIcSt11char_traitsIcESaIcEEEiEEED2Ev
	nop
	leave
	.cfi_def_cfa 7, 8
	ret
	.cfi_endproc
.LFE5065:
	.size	_ZNSt8_Rb_treeINSt7__cxx1112basic_stringIcSt11char_traitsIcESaIcEEESt4pairIKS5_iESt10_Select1stIS8_ESt4lessIS5_ESaIS8_EE13_Rb_tree_implISC_Lb1EED2Ev, .-_ZNSt8_Rb_treeINSt7__cxx1112basic_stringIcSt11char_traitsIcESaIcEEESt4pairIKS5_iESt10_Select1stIS8_ESt4lessIS5_ESaIS8_EE13_Rb_tree_implISC_Lb1EED2Ev
	.weak	_ZNSt8_Rb_treeINSt7__cxx1112basic_stringIcSt11char_traitsIcESaIcEEESt4pairIKS5_iESt10_Select1stIS8_ESt4lessIS5_ESaIS8_EE13_Rb_tree_implISC_Lb1EED1Ev
	.set	_ZNSt8_Rb_treeINSt7__cxx1112basic_stringIcSt11char_traitsIcESaIcEEESt4pairIKS5_iESt10_Select1stIS8_ESt4lessIS5_ESaIS8_EE13_Rb_tree_implISC_Lb1EED1Ev,_ZNSt8_Rb_treeINSt7__cxx1112basic_stringIcSt11char_traitsIcESaIcEEESt4pairIKS5_iESt10_Select1stIS8_ESt4lessIS5_ESaIS8_EE13_Rb_tree_implISC_Lb1EED2Ev
	.section	.text._ZNSt8_Rb_treeINSt7__cxx1112basic_stringIcSt11char_traitsIcESaIcEEESt4pairIKS5_iESt10_Select1stIS8_ESt4lessIS5_ESaIS8_EEC2Ev,"axG",@progbits,_ZNSt8_Rb_treeINSt7__cxx1112basic_stringIcSt11char_traitsIcESaIcEEESt4pairIKS5_iESt10_Select1stIS8_ESt4lessIS5_ESaIS8_EEC5Ev,comdat
	.align 2
	.weak	_ZNSt8_Rb_treeINSt7__cxx1112basic_stringIcSt11char_traitsIcESaIcEEESt4pairIKS5_iESt10_Select1stIS8_ESt4lessIS5_ESaIS8_EEC2Ev
	.type	_ZNSt8_Rb_treeINSt7__cxx1112basic_stringIcSt11char_traitsIcESaIcEEESt4pairIKS5_iESt10_Select1stIS8_ESt4lessIS5_ESaIS8_EEC2Ev, @function
_ZNSt8_Rb_treeINSt7__cxx1112basic_stringIcSt11char_traitsIcESaIcEEESt4pairIKS5_iESt10_Select1stIS8_ESt4lessIS5_ESaIS8_EEC2Ev:
.LFB5067:
	.cfi_startproc
	endbr64
	pushq	%rbp
	.cfi_def_cfa_offset 16
	.cfi_offset 6, -16
	movq	%rsp, %rbp
	.cfi_def_cfa_register 6
	subq	$16, %rsp
	movq	%rdi, -8(%rbp)
	movq	-8(%rbp), %rax
	movq	%rax, %rdi
	call	_ZNSt8_Rb_treeINSt7__cxx1112basic_stringIcSt11char_traitsIcESaIcEEESt4pairIKS5_iESt10_Select1stIS8_ESt4lessIS5_ESaIS8_EE13_Rb_tree_implISC_Lb1EEC1Ev
	nop
	leave
	.cfi_def_cfa 7, 8
	ret
	.cfi_endproc
.LFE5067:
	.size	_ZNSt8_Rb_treeINSt7__cxx1112basic_stringIcSt11char_traitsIcESaIcEEESt4pairIKS5_iESt10_Select1stIS8_ESt4lessIS5_ESaIS8_EEC2Ev, .-_ZNSt8_Rb_treeINSt7__cxx1112basic_stringIcSt11char_traitsIcESaIcEEESt4pairIKS5_iESt10_Select1stIS8_ESt4lessIS5_ESaIS8_EEC2Ev
	.weak	_ZNSt8_Rb_treeINSt7__cxx1112basic_stringIcSt11char_traitsIcESaIcEEESt4pairIKS5_iESt10_Select1stIS8_ESt4lessIS5_ESaIS8_EEC1Ev
	.set	_ZNSt8_Rb_treeINSt7__cxx1112basic_stringIcSt11char_traitsIcESaIcEEESt4pairIKS5_iESt10_Select1stIS8_ESt4lessIS5_ESaIS8_EEC1Ev,_ZNSt8_Rb_treeINSt7__cxx1112basic_stringIcSt11char_traitsIcESaIcEEESt4pairIKS5_iESt10_Select1stIS8_ESt4lessIS5_ESaIS8_EEC2Ev
	.section	.text._ZNSt3mapINSt7__cxx1112basic_stringIcSt11char_traitsIcESaIcEEEiSt4lessIS5_ESaISt4pairIKS5_iEEEC2Ev,"axG",@progbits,_ZNSt3mapINSt7__cxx1112basic_stringIcSt11char_traitsIcESaIcEEEiSt4lessIS5_ESaISt4pairIKS5_iEEEC5Ev,comdat
	.align 2
	.weak	_ZNSt3mapINSt7__cxx1112basic_stringIcSt11char_traitsIcESaIcEEEiSt4lessIS5_ESaISt4pairIKS5_iEEEC2Ev
	.type	_ZNSt3mapINSt7__cxx1112basic_stringIcSt11char_traitsIcESaIcEEEiSt4lessIS5_ESaISt4pairIKS5_iEEEC2Ev, @function
_ZNSt3mapINSt7__cxx1112basic_stringIcSt11char_traitsIcESaIcEEEiSt4lessIS5_ESaISt4pairIKS5_iEEEC2Ev:
.LFB5069:
	.cfi_startproc
	endbr64
	pushq	%rbp
	.cfi_def_cfa_offset 16
	.cfi_offset 6, -16
	movq	%rsp, %rbp
	.cfi_def_cfa_register 6
	subq	$16, %rsp
	movq	%rdi, -8(%rbp)
	movq	-8(%rbp), %rax
	movq	%rax, %rdi
	call	_ZNSt8_Rb_treeINSt7__cxx1112basic_stringIcSt11char_traitsIcESaIcEEESt4pairIKS5_iESt10_Select1stIS8_ESt4lessIS5_ESaIS8_EEC1Ev
	nop
	leave
	.cfi_def_cfa 7, 8
	ret
	.cfi_endproc
.LFE5069:
	.size	_ZNSt3mapINSt7__cxx1112basic_stringIcSt11char_traitsIcESaIcEEEiSt4lessIS5_ESaISt4pairIKS5_iEEEC2Ev, .-_ZNSt3mapINSt7__cxx1112basic_stringIcSt11char_traitsIcESaIcEEEiSt4lessIS5_ESaISt4pairIKS5_iEEEC2Ev
	.weak	_ZNSt3mapINSt7__cxx1112basic_stringIcSt11char_traitsIcESaIcEEEiSt4lessIS5_ESaISt4pairIKS5_iEEEC1Ev
	.set	_ZNSt3mapINSt7__cxx1112basic_stringIcSt11char_traitsIcESaIcEEEiSt4lessIS5_ESaISt4pairIKS5_iEEEC1Ev,_ZNSt3mapINSt7__cxx1112basic_stringIcSt11char_traitsIcESaIcEEEiSt4lessIS5_ESaISt4pairIKS5_iEEEC2Ev
	.section	.text._ZNSt3mapINSt7__cxx1112basic_stringIcSt11char_traitsIcESaIcEEEiSt4lessIS5_ESaISt4pairIKS5_iEEED2Ev,"axG",@progbits,_ZNSt3mapINSt7__cxx1112basic_stringIcSt11char_traitsIcESaIcEEEiSt4lessIS5_ESaISt4pairIKS5_iEEED5Ev,comdat
	.align 2
	.weak	_ZNSt3mapINSt7__cxx1112basic_stringIcSt11char_traitsIcESaIcEEEiSt4lessIS5_ESaISt4pairIKS5_iEEED2Ev
	.type	_ZNSt3mapINSt7__cxx1112basic_stringIcSt11char_traitsIcESaIcEEEiSt4lessIS5_ESaISt4pairIKS5_iEEED2Ev, @function
_ZNSt3mapINSt7__cxx1112basic_stringIcSt11char_traitsIcESaIcEEEiSt4lessIS5_ESaISt4pairIKS5_iEEED2Ev:
.LFB5072:
	.cfi_startproc
	endbr64
	pushq	%rbp
	.cfi_def_cfa_offset 16
	.cfi_offset 6, -16
	movq	%rsp, %rbp
	.cfi_def_cfa_register 6
	subq	$16, %rsp
	movq	%rdi, -8(%rbp)
	movq	-8(%rbp), %rax
	movq	%rax, %rdi
	call	_ZNSt8_Rb_treeINSt7__cxx1112basic_stringIcSt11char_traitsIcESaIcEEESt4pairIKS5_iESt10_Select1stIS8_ESt4lessIS5_ESaIS8_EED1Ev
	nop
	leave
	.cfi_def_cfa 7, 8
	ret
	.cfi_endproc
.LFE5072:
	.size	_ZNSt3mapINSt7__cxx1112basic_stringIcSt11char_traitsIcESaIcEEEiSt4lessIS5_ESaISt4pairIKS5_iEEED2Ev, .-_ZNSt3mapINSt7__cxx1112basic_stringIcSt11char_traitsIcESaIcEEEiSt4lessIS5_ESaISt4pairIKS5_iEEED2Ev
	.weak	_ZNSt3mapINSt7__cxx1112basic_stringIcSt11char_traitsIcESaIcEEEiSt4lessIS5_ESaISt4pairIKS5_iEEED1Ev
	.set	_ZNSt3mapINSt7__cxx1112basic_stringIcSt11char_traitsIcESaIcEEEiSt4lessIS5_ESaISt4pairIKS5_iEEED1Ev,_ZNSt3mapINSt7__cxx1112basic_stringIcSt11char_traitsIcESaIcEEEiSt4lessIS5_ESaISt4pairIKS5_iEEED2Ev
	.section	.text._ZNSt12_Vector_baseINSt7__cxx1112basic_stringIcSt11char_traitsIcESaIcEEESaIS5_EE12_Vector_implD2Ev,"axG",@progbits,_ZNSt12_Vector_baseINSt7__cxx1112basic_stringIcSt11char_traitsIcESaIcEEESaIS5_EE12_Vector_implD5Ev,comdat
	.align 2
	.weak	_ZNSt12_Vector_baseINSt7__cxx1112basic_stringIcSt11char_traitsIcESaIcEEESaIS5_EE12_Vector_implD2Ev
	.type	_ZNSt12_Vector_baseINSt7__cxx1112basic_stringIcSt11char_traitsIcESaIcEEESaIS5_EE12_Vector_implD2Ev, @function
_ZNSt12_Vector_baseINSt7__cxx1112basic_stringIcSt11char_traitsIcESaIcEEESaIS5_EE12_Vector_implD2Ev:
.LFB5078:
	.cfi_startproc
	endbr64
	pushq	%rbp
	.cfi_def_cfa_offset 16
	.cfi_offset 6, -16
	movq	%rsp, %rbp
	.cfi_def_cfa_register 6
	subq	$16, %rsp
	movq	%rdi, -8(%rbp)
	movq	-8(%rbp), %rax
	movq	%rax, %rdi
	call	_ZNSaINSt7__cxx1112basic_stringIcSt11char_traitsIcESaIcEEEED2Ev
	nop
	leave
	.cfi_def_cfa 7, 8
	ret
	.cfi_endproc
.LFE5078:
	.size	_ZNSt12_Vector_baseINSt7__cxx1112basic_stringIcSt11char_traitsIcESaIcEEESaIS5_EE12_Vector_implD2Ev, .-_ZNSt12_Vector_baseINSt7__cxx1112basic_stringIcSt11char_traitsIcESaIcEEESaIS5_EE12_Vector_implD2Ev
	.weak	_ZNSt12_Vector_baseINSt7__cxx1112basic_stringIcSt11char_traitsIcESaIcEEESaIS5_EE12_Vector_implD1Ev
	.set	_ZNSt12_Vector_baseINSt7__cxx1112basic_stringIcSt11char_traitsIcESaIcEEESaIS5_EE12_Vector_implD1Ev,_ZNSt12_Vector_baseINSt7__cxx1112basic_stringIcSt11char_traitsIcESaIcEEESaIS5_EE12_Vector_implD2Ev
	.section	.text._ZNSt12_Vector_baseINSt7__cxx1112basic_stringIcSt11char_traitsIcESaIcEEESaIS5_EEC2Ev,"axG",@progbits,_ZNSt12_Vector_baseINSt7__cxx1112basic_stringIcSt11char_traitsIcESaIcEEESaIS5_EEC5Ev,comdat
	.align 2
	.weak	_ZNSt12_Vector_baseINSt7__cxx1112basic_stringIcSt11char_traitsIcESaIcEEESaIS5_EEC2Ev
	.type	_ZNSt12_Vector_baseINSt7__cxx1112basic_stringIcSt11char_traitsIcESaIcEEESaIS5_EEC2Ev, @function
_ZNSt12_Vector_baseINSt7__cxx1112basic_stringIcSt11char_traitsIcESaIcEEESaIS5_EEC2Ev:
.LFB5080:
	.cfi_startproc
	endbr64
	pushq	%rbp
	.cfi_def_cfa_offset 16
	.cfi_offset 6, -16
	movq	%rsp, %rbp
	.cfi_def_cfa_register 6
	subq	$16, %rsp
	movq	%rdi, -8(%rbp)
	movq	-8(%rbp), %rax
	movq	%rax, %rdi
	call	_ZNSt12_Vector_baseINSt7__cxx1112basic_stringIcSt11char_traitsIcESaIcEEESaIS5_EE12_Vector_implC1Ev
	nop
	leave
	.cfi_def_cfa 7, 8
	ret
	.cfi_endproc
.LFE5080:
	.size	_ZNSt12_Vector_baseINSt7__cxx1112basic_stringIcSt11char_traitsIcESaIcEEESaIS5_EEC2Ev, .-_ZNSt12_Vector_baseINSt7__cxx1112basic_stringIcSt11char_traitsIcESaIcEEESaIS5_EEC2Ev
	.weak	_ZNSt12_Vector_baseINSt7__cxx1112basic_stringIcSt11char_traitsIcESaIcEEESaIS5_EEC1Ev
	.set	_ZNSt12_Vector_baseINSt7__cxx1112basic_stringIcSt11char_traitsIcESaIcEEESaIS5_EEC1Ev,_ZNSt12_Vector_baseINSt7__cxx1112basic_stringIcSt11char_traitsIcESaIcEEESaIS5_EEC2Ev
	.section	.text._ZNSt6vectorINSt7__cxx1112basic_stringIcSt11char_traitsIcESaIcEEESaIS5_EEC2Ev,"axG",@progbits,_ZNSt6vectorINSt7__cxx1112basic_stringIcSt11char_traitsIcESaIcEEESaIS5_EEC5Ev,comdat
	.align 2
	.weak	_ZNSt6vectorINSt7__cxx1112basic_stringIcSt11char_traitsIcESaIcEEESaIS5_EEC2Ev
	.type	_ZNSt6vectorINSt7__cxx1112basic_stringIcSt11char_traitsIcESaIcEEESaIS5_EEC2Ev, @function
_ZNSt6vectorINSt7__cxx1112basic_stringIcSt11char_traitsIcESaIcEEESaIS5_EEC2Ev:
.LFB5082:
	.cfi_startproc
	endbr64
	pushq	%rbp
	.cfi_def_cfa_offset 16
	.cfi_offset 6, -16
	movq	%rsp, %rbp
	.cfi_def_cfa_register 6
	subq	$16, %rsp
	movq	%rdi, -8(%rbp)
	movq	-8(%rbp), %rax
	movq	%rax, %rdi
	call	_ZNSt12_Vector_baseINSt7__cxx1112basic_stringIcSt11char_traitsIcESaIcEEESaIS5_EEC2Ev
	nop
	leave
	.cfi_def_cfa 7, 8
	ret
	.cfi_endproc
.LFE5082:
	.size	_ZNSt6vectorINSt7__cxx1112basic_stringIcSt11char_traitsIcESaIcEEESaIS5_EEC2Ev, .-_ZNSt6vectorINSt7__cxx1112basic_stringIcSt11char_traitsIcESaIcEEESaIS5_EEC2Ev
	.weak	_ZNSt6vectorINSt7__cxx1112basic_stringIcSt11char_traitsIcESaIcEEESaIS5_EEC1Ev
	.set	_ZNSt6vectorINSt7__cxx1112basic_stringIcSt11char_traitsIcESaIcEEESaIS5_EEC1Ev,_ZNSt6vectorINSt7__cxx1112basic_stringIcSt11char_traitsIcESaIcEEESaIS5_EEC2Ev
	.section	.rodata
.LC38:
	.string	"\320\272\320\260\321\202\320\265\320\263\320\276\321\200\320\270\321\217:"
	.align 8
.LC39:
	.string	"\n\320\247\320\260\321\211\320\265 \320\262\321\201\320\265\320\263\320\276 \320\277\320\276\320\277\320\276\320\273\320\275\320\265\320\275\320\270\321\217 c \320\272\320\260\321\202\320\265\320\263\320\276\321\200\320\270\320\270: "
.LC40:
	.string	" - "
.LC41:
	.string	" \320\267\320\260 \320\262\321\201\320\265 \320\262\321\200\320\265\320\274\321\217."
	.section	.text._ZN6Wallet19kategory_income_colEv,"axG",@progbits,_ZN6Wallet19kategory_income_colEv,comdat
	.align 2
	.weak	_ZN6Wallet19kategory_income_colEv
	.type	_ZN6Wallet19kategory_income_colEv, @function
_ZN6Wallet19kategory_income_colEv:
.LFB5058:
	.cfi_startproc
	.cfi_personality 0x9b,DW.ref.__gxx_personality_v0
	.cfi_lsda 0x1b,.LLSDA5058
	endbr64
	pushq	%rbp
	.cfi_def_cfa_offset 16
	.cfi_offset 6, -16
	movq	%rsp, %rbp
	.cfi_def_cfa_register 6
	pushq	%rbx
	subq	$744, %rsp
	.cfi_offset 3, -24
	movq	%rdi, -744(%rbp)
	movq	%fs:40, %rax
	movq	%rax, -24(%rbp)
	xorl	%eax, %eax
	leaq	-688(%rbp), %rax
	movq	%rax, %rdi
	call	_ZNSt3mapINSt7__cxx1112basic_stringIcSt11char_traitsIcESaIcEEEiSt4lessIS5_ESaISt4pairIKS5_iEEEC1Ev
	leaq	-544(%rbp), %rax
	movq	%rax, %rdi
.LEHB73:
	call	_ZNSt14basic_ifstreamIcSt11char_traitsIcEEC1Ev@PLT
.LEHE73:
	leaq	-544(%rbp), %rax
	movl	$8, %edx
	leaq	.LC22(%rip), %rcx
	movq	%rcx, %rsi
	movq	%rax, %rdi
.LEHB74:
	call	_ZNSt14basic_ifstreamIcSt11char_traitsIcEE4openEPKcSt13_Ios_Openmode@PLT
.LEHE74:
	movl	$0, -728(%rbp)
	movl	$0, -724(%rbp)
	leaq	-640(%rbp), %rax
	movq	%rax, %rdi
	call	_ZNSt7__cxx1112basic_stringIcSt11char_traitsIcESaIcEEC1Ev@PLT
	leaq	-720(%rbp), %rax
	movq	%rax, %rdi
	call	_ZNSt6vectorINSt7__cxx1112basic_stringIcSt11char_traitsIcESaIcEEESaIS5_EEC1Ev
	leaq	-608(%rbp), %rax
	movq	%rax, %rdi
	call	_ZNSt7__cxx1112basic_stringIcSt11char_traitsIcESaIcEEC1Ev@PLT
	leaq	-576(%rbp), %rax
	movq	%rax, %rdi
	call	_ZNSt7__cxx1112basic_stringIcSt11char_traitsIcESaIcEEC1Ev@PLT
	jmp	.L213
.L214:
	addl	$1, -728(%rbp)
	leaq	-576(%rbp), %rdx
	leaq	-544(%rbp), %rax
	movq	%rdx, %rsi
	movq	%rax, %rdi
.LEHB75:
	call	_ZStrsIcSt11char_traitsIcESaIcEERSt13basic_istreamIT_T0_ES7_RNSt7__cxx1112basic_stringIS4_S5_T1_EE@PLT
	leaq	-576(%rbp), %rax
	leaq	.LC38(%rip), %rdx
	movq	%rdx, %rsi
	movq	%rax, %rdi
	call	_ZSteqIcSt11char_traitsIcESaIcEEbRKNSt7__cxx1112basic_stringIT_T0_T1_EEPKS5_
	testb	%al, %al
	je	.L213
	leaq	-608(%rbp), %rdx
	leaq	-544(%rbp), %rax
	movq	%rdx, %rsi
	movq	%rax, %rdi
	call	_ZStrsIcSt11char_traitsIcESaIcEERSt13basic_istreamIT_T0_ES7_RNSt7__cxx1112basic_stringIS4_S5_T1_EE@PLT
	leaq	-608(%rbp), %rdx
	leaq	-688(%rbp), %rax
	movq	%rdx, %rsi
	movq	%rax, %rdi
	call	_ZNSt3mapINSt7__cxx1112basic_stringIcSt11char_traitsIcESaIcEEEiSt4lessIS5_ESaISt4pairIKS5_iEEEixERS9_
	movl	(%rax), %edx
	addl	$1, %edx
	movl	%edx, (%rax)
	leaq	-608(%rbp), %rdx
	leaq	-720(%rbp), %rax
	movq	%rdx, %rsi
	movq	%rax, %rdi
	call	_ZNSt6vectorINSt7__cxx1112basic_stringIcSt11char_traitsIcESaIcEEESaIS5_EE9push_backERKS5_
	leaq	-608(%rbp), %rdx
	leaq	-688(%rbp), %rax
	movq	%rdx, %rsi
	movq	%rax, %rdi
	call	_ZNSt3mapINSt7__cxx1112basic_stringIcSt11char_traitsIcESaIcEEEiSt4lessIS5_ESaISt4pairIKS5_iEEEixERS9_
	movl	(%rax), %eax
	cmpl	%eax, -724(%rbp)
	setl	%al
	testb	%al, %al
	je	.L213
	leaq	-608(%rbp), %rdx
	leaq	-688(%rbp), %rax
	movq	%rdx, %rsi
	movq	%rax, %rdi
	call	_ZNSt3mapINSt7__cxx1112basic_stringIcSt11char_traitsIcESaIcEEEiSt4lessIS5_ESaISt4pairIKS5_iEEEixERS9_
	movl	(%rax), %eax
	movl	%eax, -724(%rbp)
	leaq	-608(%rbp), %rdx
	leaq	-640(%rbp), %rax
	movq	%rdx, %rsi
	movq	%rax, %rdi
	call	_ZNSt7__cxx1112basic_stringIcSt11char_traitsIcESaIcEEaSERKS4_@PLT
.L213:
	leaq	-544(%rbp), %rax
	addq	$256, %rax
	movq	%rax, %rdi
	call	_ZNKSt9basic_iosIcSt11char_traitsIcEE3eofEv@PLT
	xorl	$1, %eax
	testb	%al, %al
	jne	.L214
	leaq	.LC39(%rip), %rax
	movq	%rax, %rsi
	leaq	_ZSt4cout(%rip), %rax
	movq	%rax, %rdi
	call	_ZStlsISt11char_traitsIcEERSt13basic_ostreamIcT_ES5_PKc@PLT
	movq	%rax, %rdx
	leaq	-640(%rbp), %rax
	movq	%rax, %rsi
	movq	%rdx, %rdi
	call	_ZStlsIcSt11char_traitsIcESaIcEERSt13basic_ostreamIT_T0_ES7_RKNSt7__cxx1112basic_stringIS4_S5_T1_EE@PLT
	movq	%rax, %rdx
	leaq	.LC40(%rip), %rax
	movq	%rax, %rsi
	movq	%rdx, %rdi
	call	_ZStlsISt11char_traitsIcEERSt13basic_ostreamIcT_ES5_PKc@PLT
	movq	%rax, %rdx
	movl	-724(%rbp), %eax
	movl	%eax, %esi
	movq	%rdx, %rdi
	call	_ZNSolsEi@PLT
	movq	%rax, %rdx
	leaq	.LC41(%rip), %rax
	movq	%rax, %rsi
	movq	%rdx, %rdi
	call	_ZStlsISt11char_traitsIcEERSt13basic_ostreamIcT_ES5_PKc@PLT
	movq	_ZSt4endlIcSt11char_traitsIcEERSt13basic_ostreamIT_T0_ES6_@GOTPCREL(%rip), %rdx
	movq	%rdx, %rsi
	movq	%rax, %rdi
	call	_ZNSolsEPFRSoS_E@PLT
.LEHE75:
	leaq	-576(%rbp), %rax
	movq	%rax, %rdi
	call	_ZNSt7__cxx1112basic_stringIcSt11char_traitsIcESaIcEED1Ev@PLT
	leaq	-608(%rbp), %rax
	movq	%rax, %rdi
	call	_ZNSt7__cxx1112basic_stringIcSt11char_traitsIcESaIcEED1Ev@PLT
	leaq	-720(%rbp), %rax
	movq	%rax, %rdi
	call	_ZNSt6vectorINSt7__cxx1112basic_stringIcSt11char_traitsIcESaIcEEESaIS5_EED1Ev
	leaq	-640(%rbp), %rax
	movq	%rax, %rdi
	call	_ZNSt7__cxx1112basic_stringIcSt11char_traitsIcESaIcEED1Ev@PLT
	leaq	-544(%rbp), %rax
	movq	%rax, %rdi
	call	_ZNSt14basic_ifstreamIcSt11char_traitsIcEED1Ev@PLT
	leaq	-688(%rbp), %rax
	movq	%rax, %rdi
	call	_ZNSt3mapINSt7__cxx1112basic_stringIcSt11char_traitsIcESaIcEEEiSt4lessIS5_ESaISt4pairIKS5_iEEED1Ev
	movq	-24(%rbp), %rax
	subq	%fs:40, %rax
	je	.L218
	jmp	.L222
.L221:
	endbr64
	movq	%rax, %rbx
	leaq	-576(%rbp), %rax
	movq	%rax, %rdi
	call	_ZNSt7__cxx1112basic_stringIcSt11char_traitsIcESaIcEED1Ev@PLT
	leaq	-608(%rbp), %rax
	movq	%rax, %rdi
	call	_ZNSt7__cxx1112basic_stringIcSt11char_traitsIcESaIcEED1Ev@PLT
	leaq	-720(%rbp), %rax
	movq	%rax, %rdi
	call	_ZNSt6vectorINSt7__cxx1112basic_stringIcSt11char_traitsIcESaIcEEESaIS5_EED1Ev
	leaq	-640(%rbp), %rax
	movq	%rax, %rdi
	call	_ZNSt7__cxx1112basic_stringIcSt11char_traitsIcESaIcEED1Ev@PLT
	jmp	.L216
.L220:
	endbr64
	movq	%rax, %rbx
.L216:
	leaq	-544(%rbp), %rax
	movq	%rax, %rdi
	call	_ZNSt14basic_ifstreamIcSt11char_traitsIcEED1Ev@PLT
	jmp	.L217
.L219:
	endbr64
	movq	%rax, %rbx
.L217:
	leaq	-688(%rbp), %rax
	movq	%rax, %rdi
	call	_ZNSt3mapINSt7__cxx1112basic_stringIcSt11char_traitsIcESaIcEEEiSt4lessIS5_ESaISt4pairIKS5_iEEED1Ev
	movq	%rbx, %rax
	movq	%rax, %rdi
.LEHB76:
	call	_Unwind_Resume@PLT
.LEHE76:
.L222:
	call	__stack_chk_fail@PLT
.L218:
	movq	-8(%rbp), %rbx
	leave
	.cfi_def_cfa 7, 8
	ret
	.cfi_endproc
.LFE5058:
	.section	.gcc_except_table
.LLSDA5058:
	.byte	0xff
	.byte	0xff
	.byte	0x1
	.uleb128 .LLSDACSE5058-.LLSDACSB5058
.LLSDACSB5058:
	.uleb128 .LEHB73-.LFB5058
	.uleb128 .LEHE73-.LEHB73
	.uleb128 .L219-.LFB5058
	.uleb128 0
	.uleb128 .LEHB74-.LFB5058
	.uleb128 .LEHE74-.LEHB74
	.uleb128 .L220-.LFB5058
	.uleb128 0
	.uleb128 .LEHB75-.LFB5058
	.uleb128 .LEHE75-.LEHB75
	.uleb128 .L221-.LFB5058
	.uleb128 0
	.uleb128 .LEHB76-.LFB5058
	.uleb128 .LEHE76-.LEHB76
	.uleb128 0
	.uleb128 0
.LLSDACSE5058:
	.section	.text._ZN6Wallet19kategory_income_colEv,"axG",@progbits,_ZN6Wallet19kategory_income_colEv,comdat
	.size	_ZN6Wallet19kategory_income_colEv, .-_ZN6Wallet19kategory_income_colEv
	.section	.rodata
	.align 8
.LC42:
	.string	"\n\320\221\320\276\320\273\321\214\321\210\320\265 \320\262\321\201\320\265\320\263\320\276 \320\264\320\265\320\275\320\265\320\263 \320\267\320\260\321\200\320\260\320\261\320\276\321\202\320\260\320\275\320\275\320\276 \321\201 \320\272\320\260\321\202\320\265\320\263\320\276\321\200\320\270\320\270: "
.LC43:
	.string	"\321\200 \320\267\320\260 \320\262\321\201\320\265 \320\262\321\200\320\265\320\274\321\217."
	.align 8
.LC44:
	.string	"\320\245\320\276\321\202\320\270\321\202\320\265 \320\277\320\276\321\201\320\274\320\276\321\202\321\200\320\265\321\202\321\214 \320\262\321\201\320\265 \320\272\320\260\321\202\320\265\320\263\320\276\321\200\320\270\320\270 ? 1 - \320\264\320\260 2 - \320\275\320\265\321\202\n"
.LC45:
	.string	"\n"
	.section	.text._ZN6Wallet21kategory_income_moneyEv,"axG",@progbits,_ZN6Wallet21kategory_income_moneyEv,comdat
	.align 2
	.weak	_ZN6Wallet21kategory_income_moneyEv
	.type	_ZN6Wallet21kategory_income_moneyEv, @function
_ZN6Wallet21kategory_income_moneyEv:
.LFB5084:
	.cfi_startproc
	.cfi_personality 0x9b,DW.ref.__gxx_personality_v0
	.cfi_lsda 0x1b,.LLSDA5084
	endbr64
	pushq	%rbp
	.cfi_def_cfa_offset 16
	.cfi_offset 6, -16
	movq	%rsp, %rbp
	.cfi_def_cfa_register 6
	pushq	%rbx
	subq	$1160, %rsp
	.cfi_offset 3, -24
	movq	%rdi, -1160(%rbp)
	movq	%fs:40, %rax
	movq	%rax, -24(%rbp)
	xorl	%eax, %eax
	leaq	-1104(%rbp), %rax
	movq	%rax, %rdi
	call	_ZNSt3mapINSt7__cxx1112basic_stringIcSt11char_traitsIcESaIcEEEiSt4lessIS5_ESaISt4pairIKS5_iEEEC1Ev
	leaq	-544(%rbp), %rax
	movq	%rax, %rdi
.LEHB77:
	call	_ZNSt14basic_ifstreamIcSt11char_traitsIcEEC1Ev@PLT
.LEHE77:
	leaq	-544(%rbp), %rax
	movl	$8, %edx
	leaq	.LC22(%rip), %rcx
	movq	%rcx, %rsi
	movq	%rax, %rdi
.LEHB78:
	call	_ZNSt14basic_ifstreamIcSt11char_traitsIcEE4openEPKcSt13_Ios_Openmode@PLT
.LEHE78:
	movl	$0, -1144(%rbp)
	movl	$0, -1140(%rbp)
	leaq	-1056(%rbp), %rax
	movq	%rax, %rdi
	call	_ZNSt7__cxx1112basic_stringIcSt11char_traitsIcESaIcEEC1Ev@PLT
	leaq	-1024(%rbp), %rax
	movq	%rax, %rdi
	call	_ZNSt7__cxx1112basic_stringIcSt11char_traitsIcESaIcEEC1Ev@PLT
	leaq	-992(%rbp), %rax
	movq	%rax, %rdi
	call	_ZNSt7__cxx1112basic_stringIcSt11char_traitsIcESaIcEEC1Ev@PLT
	movl	$0, -1152(%rbp)
	leaq	-960(%rbp), %rax
	movq	%rax, %rdi
	call	_ZNSt7__cxx1112basic_stringIcSt11char_traitsIcESaIcEEC1Ev@PLT
	jmp	.L224
.L225:
	addl	$1, -1144(%rbp)
	leaq	-960(%rbp), %rdx
	leaq	-544(%rbp), %rax
	movq	%rdx, %rsi
	movq	%rax, %rdi
.LEHB79:
	call	_ZStrsIcSt11char_traitsIcESaIcEERSt13basic_istreamIT_T0_ES7_RNSt7__cxx1112basic_stringIS4_S5_T1_EE@PLT
	leaq	-960(%rbp), %rax
	leaq	.LC38(%rip), %rdx
	movq	%rdx, %rsi
	movq	%rax, %rdi
	call	_ZSteqIcSt11char_traitsIcESaIcEEbRKNSt7__cxx1112basic_stringIT_T0_T1_EEPKS5_
	testb	%al, %al
	je	.L224
	leaq	-992(%rbp), %rdx
	leaq	-544(%rbp), %rax
	movq	%rdx, %rsi
	movq	%rax, %rdi
	call	_ZStrsIcSt11char_traitsIcESaIcEERSt13basic_istreamIT_T0_ES7_RNSt7__cxx1112basic_stringIS4_S5_T1_EE@PLT
	leaq	-1024(%rbp), %rdx
	leaq	-544(%rbp), %rax
	movq	%rdx, %rsi
	movq	%rax, %rdi
	call	_ZStrsIcSt11char_traitsIcESaIcEERSt13basic_istreamIT_T0_ES7_RNSt7__cxx1112basic_stringIS4_S5_T1_EE@PLT
	leaq	-1024(%rbp), %rcx
	leaq	-928(%rbp), %rax
	movl	$8, %edx
	movq	%rcx, %rsi
	movq	%rax, %rdi
	call	_ZNSt7__cxx1119basic_istringstreamIcSt11char_traitsIcESaIcEEC1ERKNS_12basic_stringIcS2_S3_EESt13_Ios_Openmode@PLT
.LEHE79:
	leaq	-1152(%rbp), %rdx
	leaq	-928(%rbp), %rax
	movq	%rdx, %rsi
	movq	%rax, %rdi
.LEHB80:
	call	_ZStrsINSt7__cxx1119basic_istringstreamIcSt11char_traitsIcESaIcEEERiEOT_S8_OT0_
.LEHE80:
	leaq	-928(%rbp), %rax
	movq	%rax, %rdi
	call	_ZNSt7__cxx1119basic_istringstreamIcSt11char_traitsIcESaIcEED1Ev@PLT
	leaq	-992(%rbp), %rdx
	leaq	-1104(%rbp), %rax
	movq	%rdx, %rsi
	movq	%rax, %rdi
.LEHB81:
	call	_ZNSt3mapINSt7__cxx1112basic_stringIcSt11char_traitsIcESaIcEEEiSt4lessIS5_ESaISt4pairIKS5_iEEEixERS9_
	movl	(%rax), %ecx
	movl	-1152(%rbp), %edx
	addl	%ecx, %edx
	movl	%edx, (%rax)
	leaq	-992(%rbp), %rdx
	leaq	-1104(%rbp), %rax
	movq	%rdx, %rsi
	movq	%rax, %rdi
	call	_ZNSt3mapINSt7__cxx1112basic_stringIcSt11char_traitsIcESaIcEEEiSt4lessIS5_ESaISt4pairIKS5_iEEEixERS9_
	movl	(%rax), %eax
	cmpl	%eax, -1140(%rbp)
	setl	%al
	testb	%al, %al
	je	.L224
	leaq	-992(%rbp), %rdx
	leaq	-1104(%rbp), %rax
	movq	%rdx, %rsi
	movq	%rax, %rdi
	call	_ZNSt3mapINSt7__cxx1112basic_stringIcSt11char_traitsIcESaIcEEEiSt4lessIS5_ESaISt4pairIKS5_iEEEixERS9_
	movl	(%rax), %eax
	movl	%eax, -1140(%rbp)
	leaq	-992(%rbp), %rdx
	leaq	-1056(%rbp), %rax
	movq	%rdx, %rsi
	movq	%rax, %rdi
	call	_ZNSt7__cxx1112basic_stringIcSt11char_traitsIcESaIcEEaSERKS4_@PLT
.L224:
	leaq	-544(%rbp), %rax
	addq	$256, %rax
	movq	%rax, %rdi
	call	_ZNKSt9basic_iosIcSt11char_traitsIcEE3eofEv@PLT
	xorl	$1, %eax
	testb	%al, %al
	jne	.L225
	leaq	.LC42(%rip), %rax
	movq	%rax, %rsi
	leaq	_ZSt4cout(%rip), %rax
	movq	%rax, %rdi
	call	_ZStlsISt11char_traitsIcEERSt13basic_ostreamIcT_ES5_PKc@PLT
	movq	%rax, %rdx
	leaq	-1056(%rbp), %rax
	movq	%rax, %rsi
	movq	%rdx, %rdi
	call	_ZStlsIcSt11char_traitsIcESaIcEERSt13basic_ostreamIT_T0_ES7_RKNSt7__cxx1112basic_stringIS4_S5_T1_EE@PLT
	movq	%rax, %rdx
	leaq	.LC40(%rip), %rax
	movq	%rax, %rsi
	movq	%rdx, %rdi
	call	_ZStlsISt11char_traitsIcEERSt13basic_ostreamIcT_ES5_PKc@PLT
	movq	%rax, %rdx
	movl	-1140(%rbp), %eax
	movl	%eax, %esi
	movq	%rdx, %rdi
	call	_ZNSolsEi@PLT
	movq	%rax, %rdx
	leaq	.LC43(%rip), %rax
	movq	%rax, %rsi
	movq	%rdx, %rdi
	call	_ZStlsISt11char_traitsIcEERSt13basic_ostreamIcT_ES5_PKc@PLT
	movq	_ZSt4endlIcSt11char_traitsIcEERSt13basic_ostreamIT_T0_ES6_@GOTPCREL(%rip), %rdx
	movq	%rdx, %rsi
	movq	%rax, %rdi
	call	_ZNSolsEPFRSoS_E@PLT
	leaq	.LC44(%rip), %rax
	movq	%rax, %rsi
	leaq	_ZSt4cout(%rip), %rax
	movq	%rax, %rdi
	call	_ZStlsISt11char_traitsIcEERSt13basic_ostreamIcT_ES5_PKc@PLT
	leaq	-1148(%rbp), %rax
	movq	%rax, %rsi
	leaq	_ZSt3cin(%rip), %rax
	movq	%rax, %rdi
	call	_ZNSirsERi@PLT
	movl	-1148(%rbp), %eax
	cmpl	$1, %eax
	jne	.L226
	leaq	-1104(%rbp), %rax
	movq	%rax, -1120(%rbp)
	movq	-1120(%rbp), %rax
	movq	%rax, %rdi
	call	_ZNSt3mapINSt7__cxx1112basic_stringIcSt11char_traitsIcESaIcEEEiSt4lessIS5_ESaISt4pairIKS5_iEEE5beginEv
	movq	%rax, -1136(%rbp)
	movq	-1120(%rbp), %rax
	movq	%rax, %rdi
	call	_ZNSt3mapINSt7__cxx1112basic_stringIcSt11char_traitsIcESaIcEEEiSt4lessIS5_ESaISt4pairIKS5_iEEE3endEv
	movq	%rax, -1128(%rbp)
	jmp	.L227
.L228:
	leaq	-1136(%rbp), %rax
	movq	%rax, %rdi
	call	_ZNKSt17_Rb_tree_iteratorISt4pairIKNSt7__cxx1112basic_stringIcSt11char_traitsIcESaIcEEEiEEdeEv
	movq	%rax, -1112(%rbp)
	movq	-1112(%rbp), %rax
	movq	%rax, %rsi
	leaq	_ZSt4cout(%rip), %rax
	movq	%rax, %rdi
	call	_ZStlsIcSt11char_traitsIcESaIcEERSt13basic_ostreamIT_T0_ES7_RKNSt7__cxx1112basic_stringIS4_S5_T1_EE@PLT
	movq	%rax, %rdx
	leaq	.LC40(%rip), %rax
	movq	%rax, %rsi
	movq	%rdx, %rdi
	call	_ZStlsISt11char_traitsIcEERSt13basic_ostreamIcT_ES5_PKc@PLT
	movq	%rax, %rdx
	movq	-1112(%rbp), %rax
	movl	32(%rax), %eax
	movl	%eax, %esi
	movq	%rdx, %rdi
	call	_ZNSolsEi@PLT
	movq	_ZSt4endlIcSt11char_traitsIcEERSt13basic_ostreamIT_T0_ES6_@GOTPCREL(%rip), %rdx
	movq	%rdx, %rsi
	movq	%rax, %rdi
	call	_ZNSolsEPFRSoS_E@PLT
	leaq	-1136(%rbp), %rax
	movq	%rax, %rdi
	call	_ZNSt17_Rb_tree_iteratorISt4pairIKNSt7__cxx1112basic_stringIcSt11char_traitsIcESaIcEEEiEEppEv
.L227:
	leaq	-1128(%rbp), %rdx
	leaq	-1136(%rbp), %rax
	movq	%rdx, %rsi
	movq	%rax, %rdi
	call	_ZStneRKSt17_Rb_tree_iteratorISt4pairIKNSt7__cxx1112basic_stringIcSt11char_traitsIcESaIcEEEiEESB_
	testb	%al, %al
	jne	.L228
	jmp	.L229
.L226:
	leaq	.LC45(%rip), %rax
	movq	%rax, %rsi
	leaq	_ZSt4cout(%rip), %rax
	movq	%rax, %rdi
	call	_ZStlsISt11char_traitsIcEERSt13basic_ostreamIcT_ES5_PKc@PLT
.L229:
	leaq	-544(%rbp), %rax
	movq	%rax, %rdi
	call	_ZNSt14basic_ifstreamIcSt11char_traitsIcEE5closeEv@PLT
.LEHE81:
	leaq	-960(%rbp), %rax
	movq	%rax, %rdi
	call	_ZNSt7__cxx1112basic_stringIcSt11char_traitsIcESaIcEED1Ev@PLT
	leaq	-992(%rbp), %rax
	movq	%rax, %rdi
	call	_ZNSt7__cxx1112basic_stringIcSt11char_traitsIcESaIcEED1Ev@PLT
	leaq	-1024(%rbp), %rax
	movq	%rax, %rdi
	call	_ZNSt7__cxx1112basic_stringIcSt11char_traitsIcESaIcEED1Ev@PLT
	leaq	-1056(%rbp), %rax
	movq	%rax, %rdi
	call	_ZNSt7__cxx1112basic_stringIcSt11char_traitsIcESaIcEED1Ev@PLT
	leaq	-544(%rbp), %rax
	movq	%rax, %rdi
	call	_ZNSt14basic_ifstreamIcSt11char_traitsIcEED1Ev@PLT
	leaq	-1104(%rbp), %rax
	movq	%rax, %rdi
	call	_ZNSt3mapINSt7__cxx1112basic_stringIcSt11char_traitsIcESaIcEEEiSt4lessIS5_ESaISt4pairIKS5_iEEED1Ev
	movq	-24(%rbp), %rax
	subq	%fs:40, %rax
	je	.L234
	jmp	.L239
.L238:
	endbr64
	movq	%rax, %rbx
	leaq	-928(%rbp), %rax
	movq	%rax, %rdi
	call	_ZNSt7__cxx1119basic_istringstreamIcSt11char_traitsIcESaIcEED1Ev@PLT
	jmp	.L231
.L237:
	endbr64
	movq	%rax, %rbx
.L231:
	leaq	-960(%rbp), %rax
	movq	%rax, %rdi
	call	_ZNSt7__cxx1112basic_stringIcSt11char_traitsIcESaIcEED1Ev@PLT
	leaq	-992(%rbp), %rax
	movq	%rax, %rdi
	call	_ZNSt7__cxx1112basic_stringIcSt11char_traitsIcESaIcEED1Ev@PLT
	leaq	-1024(%rbp), %rax
	movq	%rax, %rdi
	call	_ZNSt7__cxx1112basic_stringIcSt11char_traitsIcESaIcEED1Ev@PLT
	leaq	-1056(%rbp), %rax
	movq	%rax, %rdi
	call	_ZNSt7__cxx1112basic_stringIcSt11char_traitsIcESaIcEED1Ev@PLT
	jmp	.L232
.L236:
	endbr64
	movq	%rax, %rbx
.L232:
	leaq	-544(%rbp), %rax
	movq	%rax, %rdi
	call	_ZNSt14basic_ifstreamIcSt11char_traitsIcEED1Ev@PLT
	jmp	.L233
.L235:
	endbr64
	movq	%rax, %rbx
.L233:
	leaq	-1104(%rbp), %rax
	movq	%rax, %rdi
	call	_ZNSt3mapINSt7__cxx1112basic_stringIcSt11char_traitsIcESaIcEEEiSt4lessIS5_ESaISt4pairIKS5_iEEED1Ev
	movq	%rbx, %rax
	movq	%rax, %rdi
.LEHB82:
	call	_Unwind_Resume@PLT
.LEHE82:
.L239:
	call	__stack_chk_fail@PLT
.L234:
	movq	-8(%rbp), %rbx
	leave
	.cfi_def_cfa 7, 8
	ret
	.cfi_endproc
.LFE5084:
	.section	.gcc_except_table
.LLSDA5084:
	.byte	0xff
	.byte	0xff
	.byte	0x1
	.uleb128 .LLSDACSE5084-.LLSDACSB5084
.LLSDACSB5084:
	.uleb128 .LEHB77-.LFB5084
	.uleb128 .LEHE77-.LEHB77
	.uleb128 .L235-.LFB5084
	.uleb128 0
	.uleb128 .LEHB78-.LFB5084
	.uleb128 .LEHE78-.LEHB78
	.uleb128 .L236-.LFB5084
	.uleb128 0
	.uleb128 .LEHB79-.LFB5084
	.uleb128 .LEHE79-.LEHB79
	.uleb128 .L237-.LFB5084
	.uleb128 0
	.uleb128 .LEHB80-.LFB5084
	.uleb128 .LEHE80-.LEHB80
	.uleb128 .L238-.LFB5084
	.uleb128 0
	.uleb128 .LEHB81-.LFB5084
	.uleb128 .LEHE81-.LEHB81
	.uleb128 .L237-.LFB5084
	.uleb128 0
	.uleb128 .LEHB82-.LFB5084
	.uleb128 .LEHE82-.LEHB82
	.uleb128 0
	.uleb128 0
.LLSDACSE5084:
	.section	.text._ZN6Wallet21kategory_income_moneyEv,"axG",@progbits,_ZN6Wallet21kategory_income_moneyEv,comdat
	.size	_ZN6Wallet21kategory_income_moneyEv, .-_ZN6Wallet21kategory_income_moneyEv
	.section	.rodata
.LC46:
	.string	"kredit_dolg.txt"
.LC47:
	.string	"\320\224\320\276\320\273\320\263:"
	.align 8
.LC48:
	.string	"\n\320\222\320\222\320\236\320\224 \320\240\320\220\320\241\320\245\320\236\320\224\320\236\320\222!!!\n"
	.align 8
.LC49:
	.string	"\n\320\235\320\265\320\264\320\276\321\201\321\202\320\260\321\202\320\276\321\207\320\275\320\276 \321\201\321\200\320\265\320\264\321\201\321\202\320\262 \320\275\320\260 \320\272\320\276\321\210\320\265\320\273\321\214\320\272\320\265. \320\245\320\276\321\202\320\270\321\202\320\265 \320\262\320\276\321\201\320\277\320\276\320\273\321\214\320\267\320\276\320\262\320\260\321\202\321\214\321\201\321\217 \320\272\321\200\320\265\320\264\320\270\321\202\320\275\320\276\320\271 \320\272\320\260\321\200\321\202\320\276\320\271 ?\n1 - \320\264\320\260 2 - \320\275\320\265\321\202\n"
.LC50:
	.string	"card_money.txt"
	.align 8
.LC51:
	.string	"\320\222\321\213 \320\275\320\265 \320\262\320\276\321\210\320\273\320\270 \320\262 \320\272\320\260\321\200\321\202\321\203!\n"
	.align 8
.LC52:
	.string	"\320\232\321\200\320\265\320\264\320\270\321\202 \320\275\320\265 \320\261\321\213\320\273 \320\276\321\204\320\276\321\200\320\274\320\273\320\265\320\275!\n"
.LC53:
	.string	"\n\320\222\320\260\321\210 \320\261\320\260\320\273\320\260\320\275\321\201: "
	.align 8
.LC54:
	.string	"\n\320\222\320\262\320\265\320\264\320\270\321\202\320\265 \321\201\321\203\320\274\320\274\321\203 \320\272\321\200\320\265\320\264\320\270\321\202\320\260: "
	.align 8
.LC55:
	.string	"\n\320\242\320\265\320\277\320\265\321\200\321\214 \321\203 \320\262\320\260\321\201 \320\275\320\260 \320\261\320\260\320\273\320\260\320\275\321\201\320\265: "
	.align 8
.LC56:
	.string	"\320\232 \320\262\320\260\321\210\320\265\320\271 \320\267\320\260\320\264\320\276\320\273\320\266\320\275\320\276\321\201\321\202\320\270 \320\264\320\276\320\261\320\260\320\262\320\273\320\265\320\275\320\275\320\276: "
.LC57:
	.string	"kredit_history.txt"
	.align 8
.LC58:
	.string	"\n\320\232\321\200\320\265\320\264\320\270\321\202 \320\276\321\204\320\276\321\200\320\274\320\273\320\265\320\275 "
.LC59:
	.string	"\320\275\320\260 \321\201\321\203\320\274\320\274\321\203:  "
.LC60:
	.string	" \321\200\321\203\320\261\320\273\320\265\320\271"
	.align 8
.LC61:
	.string	"\320\222\321\213\320\261\320\265\321\200\320\270\321\202\320\265 \320\272\320\260\321\202\320\265\320\263\320\276\321\200\320\270\321\216 \320\264\320\273\321\217 \321\200\320\260\321\201\321\205\320\276\320\264\320\260 "
.LC62:
	.string	"\n1 - \320\227\320\264\320\276\321\200\320\276\320\262\321\214\320\265 "
.LC63:
	.string	"\n2 - \320\224\320\276\321\201\321\203\320\263 "
.LC64:
	.string	"\n3 - \320\224\320\276\320\274 "
.LC65:
	.string	"\n4 - \320\232\320\260\321\204\320\265 "
.LC66:
	.string	"\n5 - \320\236\320\261\321\200\320\260\320\267\320\276\320\262\320\260\320\275\320\270\320\265 "
.LC67:
	.string	"\n6 - \320\237\320\276\320\264\320\260\321\200\320\272\320\270 "
.LC68:
	.string	"\n7 - \320\237\321\200\320\276\320\264\321\203\320\272\321\202\321\213 "
.LC69:
	.string	"\n8 - \320\241\320\277\320\276\321\200\321\202 "
.LC70:
	.string	"\n9 - \320\242\321\200\320\260\320\275\321\201\320\277\320\276\321\200\321\202 "
.LC71:
	.string	"\n10 - \320\224\321\200\321\203\320\263\320\276\320\265 \n"
	.align 8
.LC72:
	.string	"\n\320\241\321\207\320\265\321\202 \321\203\320\274\320\265\320\275\321\214\321\210\320\265\320\275 \320\275\320\260 "
	.align 8
.LC73:
	.string	" \320\262\321\200\320\265\320\274\321\217 \320\267\320\260\320\277\320\270\321\201\320\270 \321\203\320\274\320\265\320\275\321\214\321\210\320\265\320\275\320\270\321\217 \320\261\320\260\320\273\320\260\320\275\321\201\320\260: "
	.section	.text._ZN6Wallet8expensesEv,"axG",@progbits,_ZN6Wallet8expensesEv,comdat
	.align 2
	.weak	_ZN6Wallet8expensesEv
	.type	_ZN6Wallet8expensesEv, @function
_ZN6Wallet8expensesEv:
.LFB5086:
	.cfi_startproc
	.cfi_personality 0x9b,DW.ref.__gxx_personality_v0
	.cfi_lsda 0x1b,.LLSDA5086
	endbr64
	pushq	%rbp
	.cfi_def_cfa_offset 16
	.cfi_offset 6, -16
	movq	%rsp, %rbp
	.cfi_def_cfa_register 6
	pushq	%rbx
	subq	$4096, %rsp
	orq	$0, (%rsp)
	subq	$1288, %rsp
	.cfi_offset 3, -24
	movq	%rdi, -5384(%rbp)
	movq	%fs:40, %rax
	movq	%rax, -24(%rbp)
	xorl	%eax, %eax
	leaq	-5296(%rbp), %rax
	movq	%rax, %rdi
	call	_ZNSt7__cxx1112basic_stringIcSt11char_traitsIcESaIcEEC1Ev@PLT
	movl	$0, -5340(%rbp)
	leaq	-3216(%rbp), %rax
	movq	%rax, %rdi
.LEHB83:
	call	_ZNSt14basic_ifstreamIcSt11char_traitsIcEEC1Ev@PLT
.LEHE83:
	leaq	-3216(%rbp), %rax
	movl	$8, %edx
	leaq	.LC46(%rip), %rcx
	movq	%rcx, %rsi
	movq	%rax, %rdi
.LEHB84:
	call	_ZNSt14basic_ifstreamIcSt11char_traitsIcEE4openEPKcSt13_Ios_Openmode@PLT
	leaq	-3216(%rbp), %rax
	movq	%rax, %rdi
	call	_ZNSt14basic_ifstreamIcSt11char_traitsIcEE7is_openEv@PLT
	testb	%al, %al
	je	.L241
	jmp	.L242
.L243:
	leaq	-5296(%rbp), %rdx
	leaq	-3216(%rbp), %rax
	movq	%rdx, %rsi
	movq	%rax, %rdi
	call	_ZStrsIcSt11char_traitsIcESaIcEERSt13basic_istreamIT_T0_ES7_RNSt7__cxx1112basic_stringIS4_S5_T1_EE@PLT
	leaq	-5296(%rbp), %rax
	leaq	.LC47(%rip), %rdx
	movq	%rdx, %rsi
	movq	%rax, %rdi
	call	_ZSteqIcSt11char_traitsIcESaIcEEbRKNSt7__cxx1112basic_stringIT_T0_T1_EEPKS5_
	testb	%al, %al
	je	.L242
	leaq	-5296(%rbp), %rax
	movq	%rax, %rdi
	call	_ZNKSt7__cxx1112basic_stringIcSt11char_traitsIcESaIcEE5c_strEv@PLT
	movq	%rax, %rdi
	call	atoi@PLT
	addl	%eax, -5340(%rbp)
.L242:
	leaq	-3216(%rbp), %rax
	addq	$256, %rax
	movq	%rax, %rdi
	call	_ZNKSt9basic_iosIcSt11char_traitsIcEE3eofEv@PLT
	xorl	$1, %eax
	testb	%al, %al
	jne	.L243
.L241:
	leaq	-3216(%rbp), %rax
	movq	%rax, %rdi
	call	_ZNSt14basic_ifstreamIcSt11char_traitsIcEE5closeEv@PLT
	leaq	.LC48(%rip), %rax
	movq	%rax, %rsi
	leaq	_ZSt4cout(%rip), %rax
	movq	%rax, %rdi
	call	_ZStlsISt11char_traitsIcEERSt13basic_ostreamIcT_ES5_PKc@PLT
	leaq	.LC24(%rip), %rax
	movq	%rax, %rsi
	leaq	_ZSt4cout(%rip), %rax
	movq	%rax, %rdi
	call	_ZStlsISt11char_traitsIcEERSt13basic_ostreamIcT_ES5_PKc@PLT
	leaq	-5368(%rbp), %rax
	movq	%rax, %rsi
	leaq	_ZSt3cin(%rip), %rax
	movq	%rax, %rdi
	call	_ZNSirsERi@PLT
	leaq	-2688(%rbp), %rax
	movq	%rax, %rdi
	call	_ZNSt14basic_ifstreamIcSt11char_traitsIcEEC1Ev@PLT
.LEHE84:
	leaq	-2688(%rbp), %rax
	movl	$8, %edx
	leaq	.LC34(%rip), %rcx
	movq	%rcx, %rsi
	movq	%rax, %rdi
.LEHB85:
	call	_ZNSt14basic_ifstreamIcSt11char_traitsIcEE4openEPKcSt13_Ios_Openmode@PLT
	movq	-5384(%rbp), %rax
	leaq	192(%rax), %rdx
	leaq	-2688(%rbp), %rax
	movq	%rdx, %rsi
	movq	%rax, %rdi
	call	_ZNSirsERi@PLT
	leaq	-2688(%rbp), %rax
	movq	%rax, %rdi
	call	_ZNSt14basic_ifstreamIcSt11char_traitsIcEE5closeEv@PLT
	movq	-5384(%rbp), %rax
	movl	192(%rax), %eax
	movl	-5368(%rbp), %ecx
	subl	%ecx, %eax
	movl	%eax, %edx
	movq	-5384(%rbp), %rax
	movl	%edx, 192(%rax)
	movq	-5384(%rbp), %rax
	movl	192(%rax), %eax
	testl	%eax, %eax
	jns	.L244
	leaq	.LC49(%rip), %rax
	movq	%rax, %rsi
	leaq	_ZSt4cout(%rip), %rax
	movq	%rax, %rdi
	call	_ZStlsISt11char_traitsIcEERSt13basic_ostreamIcT_ES5_PKc@PLT
	leaq	-5364(%rbp), %rax
	movq	%rax, %rsi
	leaq	_ZSt3cin(%rip), %rax
	movq	%rax, %rdi
	call	_ZNSirsERi@PLT
	leaq	-2160(%rbp), %rax
	movq	%rax, %rdi
	call	_ZNSt14basic_ifstreamIcSt11char_traitsIcEEC1Ev@PLT
.LEHE85:
	leaq	-2160(%rbp), %rax
	movl	$8, %edx
	leaq	.LC50(%rip), %rcx
	movq	%rcx, %rsi
	movq	%rax, %rdi
.LEHB86:
	call	_ZNSt14basic_ifstreamIcSt11char_traitsIcEE4openEPKcSt13_Ios_Openmode@PLT
	leaq	-5360(%rbp), %rdx
	leaq	-2160(%rbp), %rax
	movq	%rdx, %rsi
	movq	%rax, %rdi
	call	_ZNSirsERi@PLT
	movl	-5360(%rbp), %eax
	testl	%eax, %eax
	jns	.L245
	leaq	.LC51(%rip), %rax
	movq	%rax, %rsi
	leaq	_ZSt4cout(%rip), %rax
	movq	%rax, %rdi
	call	_ZStlsISt11char_traitsIcEERSt13basic_ostreamIcT_ES5_PKc@PLT
	leaq	.LC52(%rip), %rax
	movq	%rax, %rsi
	leaq	_ZSt4cout(%rip), %rax
	movq	%rax, %rdi
	call	_ZStlsISt11char_traitsIcEERSt13basic_ostreamIcT_ES5_PKc@PLT
	jmp	.L246
.L245:
	movl	-5364(%rbp), %eax
	cmpl	$1, %eax
	jne	.L246
	movl	$0, -5356(%rbp)
	movl	$0, -5348(%rbp)
	movl	$0, %edi
	call	time@PLT
	movq	%rax, -5336(%rbp)
	leaq	-5336(%rbp), %rax
	movq	%rax, %rdi
	call	ctime@PLT
	movq	%rax, -5312(%rbp)
	leaq	-5336(%rbp), %rax
	movq	%rax, %rdi
	call	gmtime@PLT
	movq	%rax, -5304(%rbp)
	movq	-5304(%rbp), %rax
	movq	%rax, %rdi
	call	asctime@PLT
	movq	%rax, -5312(%rbp)
	leaq	-1632(%rbp), %rax
	movq	%rax, %rdi
	call	_ZNSt14basic_ifstreamIcSt11char_traitsIcEEC1Ev@PLT
.LEHE86:
	leaq	-1632(%rbp), %rax
	movl	$8, %edx
	leaq	.LC46(%rip), %rcx
	movq	%rcx, %rsi
	movq	%rax, %rdi
.LEHB87:
	call	_ZNSt14basic_ifstreamIcSt11char_traitsIcEE4openEPKcSt13_Ios_Openmode@PLT
	leaq	-5348(%rbp), %rdx
	leaq	-1632(%rbp), %rax
	movq	%rdx, %rsi
	movq	%rax, %rdi
	call	_ZNSirsERi@PLT
	leaq	-1632(%rbp), %rax
	movq	%rax, %rdi
	call	_ZNSt14basic_ifstreamIcSt11char_traitsIcEE5closeEv@PLT
	leaq	-1104(%rbp), %rax
	movq	%rax, %rdi
	call	_ZNSt14basic_ifstreamIcSt11char_traitsIcEEC1Ev@PLT
.LEHE87:
	leaq	-1104(%rbp), %rax
	movl	$8, %edx
	leaq	.LC50(%rip), %rcx
	movq	%rcx, %rsi
	movq	%rax, %rdi
.LEHB88:
	call	_ZNSt14basic_ifstreamIcSt11char_traitsIcEE4openEPKcSt13_Ios_Openmode@PLT
	leaq	-5352(%rbp), %rdx
	leaq	-1104(%rbp), %rax
	movq	%rdx, %rsi
	movq	%rax, %rdi
	call	_ZNSirsERi@PLT
	leaq	-1104(%rbp), %rax
	movq	%rax, %rdi
	call	_ZNSt14basic_ifstreamIcSt11char_traitsIcEE5closeEv@PLT
	leaq	-576(%rbp), %rax
	movq	%rax, %rdi
	call	_ZNSt14basic_ifstreamIcSt11char_traitsIcEEC1Ev@PLT
.LEHE88:
	leaq	-576(%rbp), %rax
	movl	$8, %edx
	leaq	.LC34(%rip), %rcx
	movq	%rcx, %rsi
	movq	%rax, %rdi
.LEHB89:
	call	_ZNSt14basic_ifstreamIcSt11char_traitsIcEE4openEPKcSt13_Ios_Openmode@PLT
	leaq	-5356(%rbp), %rdx
	leaq	-576(%rbp), %rax
	movq	%rdx, %rsi
	movq	%rax, %rdi
	call	_ZNSirsERi@PLT
	leaq	-576(%rbp), %rax
	movq	%rax, %rdi
	call	_ZNSt14basic_ifstreamIcSt11char_traitsIcEE5closeEv@PLT
	leaq	.LC53(%rip), %rax
	movq	%rax, %rsi
	leaq	_ZSt4cout(%rip), %rax
	movq	%rax, %rdi
	call	_ZStlsISt11char_traitsIcEERSt13basic_ostreamIcT_ES5_PKc@PLT
	movq	%rax, %rdx
	movl	-5356(%rbp), %eax
	movl	%eax, %esi
	movq	%rdx, %rdi
	call	_ZNSolsEi@PLT
	movq	_ZSt4endlIcSt11char_traitsIcEERSt13basic_ostreamIT_T0_ES6_@GOTPCREL(%rip), %rdx
	movq	%rdx, %rsi
	movq	%rax, %rdi
	call	_ZNSolsEPFRSoS_E@PLT
	leaq	.LC54(%rip), %rax
	movq	%rax, %rsi
	leaq	_ZSt4cout(%rip), %rax
	movq	%rax, %rdi
	call	_ZStlsISt11char_traitsIcEERSt13basic_ostreamIcT_ES5_PKc@PLT
	leaq	-5344(%rbp), %rax
	movq	%rax, %rsi
	leaq	_ZSt3cin(%rip), %rax
	movq	%rax, %rdi
	call	_ZNSirsERi@PLT
	movl	-5356(%rbp), %edx
	movl	-5344(%rbp), %eax
	addl	%edx, %eax
	movl	%eax, -5356(%rbp)
	movl	-5348(%rbp), %edx
	movl	-5344(%rbp), %eax
	addl	%edx, %eax
	movl	%eax, -5348(%rbp)
	leaq	.LC55(%rip), %rax
	movq	%rax, %rsi
	leaq	_ZSt4cout(%rip), %rax
	movq	%rax, %rdi
	call	_ZStlsISt11char_traitsIcEERSt13basic_ostreamIcT_ES5_PKc@PLT
	movq	%rax, %rdx
	movl	-5356(%rbp), %eax
	movl	%eax, %esi
	movq	%rdx, %rdi
	call	_ZNSolsEi@PLT
	movq	_ZSt4endlIcSt11char_traitsIcEERSt13basic_ostreamIT_T0_ES6_@GOTPCREL(%rip), %rdx
	movq	%rdx, %rsi
	movq	%rax, %rdi
	call	_ZNSolsEPFRSoS_E@PLT
	leaq	.LC56(%rip), %rax
	movq	%rax, %rsi
	leaq	_ZSt4cout(%rip), %rax
	movq	%rax, %rdi
	call	_ZStlsISt11char_traitsIcEERSt13basic_ostreamIcT_ES5_PKc@PLT
	movq	%rax, %rdx
	movl	-5344(%rbp), %eax
	movl	%eax, %esi
	movq	%rdx, %rdi
	call	_ZNSolsEi@PLT
	movq	_ZSt4endlIcSt11char_traitsIcEERSt13basic_ostreamIT_T0_ES6_@GOTPCREL(%rip), %rdx
	movq	%rdx, %rsi
	movq	%rax, %rdi
	call	_ZNSolsEPFRSoS_E@PLT
	leaq	-5264(%rbp), %rax
	movq	%rax, %rdi
	call	_ZNSt14basic_ofstreamIcSt11char_traitsIcEEC1Ev@PLT
.LEHE89:
	leaq	-5264(%rbp), %rax
	movl	$1, %edx
	leaq	.LC57(%rip), %rcx
	movq	%rcx, %rsi
	movq	%rax, %rdi
.LEHB90:
	call	_ZNSt14basic_ofstreamIcSt11char_traitsIcEE4openEPKcSt13_Ios_Openmode@PLT
	leaq	-5264(%rbp), %rax
	leaq	.LC58(%rip), %rdx
	movq	%rdx, %rsi
	movq	%rax, %rdi
	call	_ZStlsISt11char_traitsIcEERSt13basic_ostreamIcT_ES5_PKc@PLT
	movq	%rax, %rdx
	movq	-5312(%rbp), %rax
	movq	%rax, %rsi
	movq	%rdx, %rdi
	call	_ZStlsISt11char_traitsIcEERSt13basic_ostreamIcT_ES5_PKc@PLT
	movq	%rax, %rdx
	leaq	.LC59(%rip), %rax
	movq	%rax, %rsi
	movq	%rdx, %rdi
	call	_ZStlsISt11char_traitsIcEERSt13basic_ostreamIcT_ES5_PKc@PLT
	movq	%rax, %rdx
	movl	-5344(%rbp), %eax
	movl	%eax, %esi
	movq	%rdx, %rdi
	call	_ZNSolsEi@PLT
	movq	%rax, %rdx
	leaq	.LC60(%rip), %rax
	movq	%rax, %rsi
	movq	%rdx, %rdi
	call	_ZStlsISt11char_traitsIcEERSt13basic_ostreamIcT_ES5_PKc@PLT
	leaq	-5264(%rbp), %rax
	movq	%rax, %rdi
	call	_ZNSt14basic_ofstreamIcSt11char_traitsIcEE5closeEv@PLT
	leaq	-4752(%rbp), %rax
	movq	%rax, %rdi
	call	_ZNSt14basic_ofstreamIcSt11char_traitsIcEEC1Ev@PLT
.LEHE90:
	leaq	-4752(%rbp), %rax
	movl	$16, %edx
	leaq	.LC46(%rip), %rcx
	movq	%rcx, %rsi
	movq	%rax, %rdi
.LEHB91:
	call	_ZNSt14basic_ofstreamIcSt11char_traitsIcEE4openEPKcSt13_Ios_Openmode@PLT
	movl	-5348(%rbp), %edx
	leaq	-4752(%rbp), %rax
	movl	%edx, %esi
	movq	%rax, %rdi
	call	_ZNSolsEi@PLT
	leaq	-4752(%rbp), %rax
	movq	%rax, %rdi
	call	_ZNSt14basic_ofstreamIcSt11char_traitsIcEE5closeEv@PLT
	leaq	-4240(%rbp), %rax
	movq	%rax, %rdi
	call	_ZNSt14basic_ofstreamIcSt11char_traitsIcEEC1Ev@PLT
.LEHE91:
	leaq	-4240(%rbp), %rax
	movl	$16, %edx
	leaq	.LC50(%rip), %rcx
	movq	%rcx, %rsi
	movq	%rax, %rdi
.LEHB92:
	call	_ZNSt14basic_ofstreamIcSt11char_traitsIcEE4openEPKcSt13_Ios_Openmode@PLT
	movl	-5352(%rbp), %eax
	movl	-5344(%rbp), %edx
	subl	%edx, %eax
	movl	%eax, -5352(%rbp)
	movl	-5352(%rbp), %edx
	leaq	-4240(%rbp), %rax
	movl	%edx, %esi
	movq	%rax, %rdi
	call	_ZNSolsEi@PLT
	leaq	-4240(%rbp), %rax
	movq	%rax, %rdi
	call	_ZNSt14basic_ofstreamIcSt11char_traitsIcEE5closeEv@PLT
	leaq	-3728(%rbp), %rax
	movq	%rax, %rdi
	call	_ZNSt14basic_ofstreamIcSt11char_traitsIcEEC1Ev@PLT
.LEHE92:
	leaq	-3728(%rbp), %rax
	movl	$16, %edx
	leaq	.LC34(%rip), %rcx
	movq	%rcx, %rsi
	movq	%rax, %rdi
.LEHB93:
	call	_ZNSt14basic_ofstreamIcSt11char_traitsIcEE4openEPKcSt13_Ios_Openmode@PLT
	movl	-5356(%rbp), %edx
	leaq	-3728(%rbp), %rax
	movl	%edx, %esi
	movq	%rax, %rdi
	call	_ZNSolsEi@PLT
	leaq	-3728(%rbp), %rax
	movq	%rax, %rdi
	call	_ZNSt14basic_ofstreamIcSt11char_traitsIcEE5closeEv@PLT
.LEHE93:
	leaq	-3728(%rbp), %rax
	movq	%rax, %rdi
	call	_ZNSt14basic_ofstreamIcSt11char_traitsIcEED1Ev@PLT
	leaq	-4240(%rbp), %rax
	movq	%rax, %rdi
	call	_ZNSt14basic_ofstreamIcSt11char_traitsIcEED1Ev@PLT
	leaq	-4752(%rbp), %rax
	movq	%rax, %rdi
	call	_ZNSt14basic_ofstreamIcSt11char_traitsIcEED1Ev@PLT
	leaq	-5264(%rbp), %rax
	movq	%rax, %rdi
	call	_ZNSt14basic_ofstreamIcSt11char_traitsIcEED1Ev@PLT
	leaq	-576(%rbp), %rax
	movq	%rax, %rdi
	call	_ZNSt14basic_ifstreamIcSt11char_traitsIcEED1Ev@PLT
	leaq	-1104(%rbp), %rax
	movq	%rax, %rdi
	call	_ZNSt14basic_ifstreamIcSt11char_traitsIcEED1Ev@PLT
	leaq	-1632(%rbp), %rax
	movq	%rax, %rdi
	call	_ZNSt14basic_ifstreamIcSt11char_traitsIcEED1Ev@PLT
.L246:
	leaq	-2160(%rbp), %rax
	movq	%rax, %rdi
	call	_ZNSt14basic_ifstreamIcSt11char_traitsIcEED1Ev@PLT
	jmp	.L247
.L244:
	leaq	-576(%rbp), %rax
	movq	%rax, %rdi
.LEHB94:
	call	_ZNSt14basic_ofstreamIcSt11char_traitsIcEEC1Ev@PLT
.LEHE94:
	leaq	-576(%rbp), %rax
	movl	$1, %edx
	leaq	.LC36(%rip), %rcx
	movq	%rcx, %rsi
	movq	%rax, %rdi
.LEHB95:
	call	_ZNSt14basic_ofstreamIcSt11char_traitsIcEE4openEPKcSt13_Ios_Openmode@PLT
	movl	$0, %edi
	call	time@PLT
	movq	%rax, -5336(%rbp)
	leaq	-5336(%rbp), %rax
	movq	%rax, %rdi
	call	ctime@PLT
	movq	%rax, -5328(%rbp)
	leaq	-5336(%rbp), %rax
	movq	%rax, %rdi
	call	gmtime@PLT
	movq	%rax, -5320(%rbp)
	movq	-5320(%rbp), %rax
	movq	%rax, %rdi
	call	asctime@PLT
	movq	%rax, -5328(%rbp)
	leaq	.LC61(%rip), %rax
	movq	%rax, %rsi
	leaq	_ZSt4cout(%rip), %rax
	movq	%rax, %rdi
	call	_ZStlsISt11char_traitsIcEERSt13basic_ostreamIcT_ES5_PKc@PLT
	leaq	.LC62(%rip), %rax
	movq	%rax, %rsi
	leaq	_ZSt4cout(%rip), %rax
	movq	%rax, %rdi
	call	_ZStlsISt11char_traitsIcEERSt13basic_ostreamIcT_ES5_PKc@PLT
	leaq	.LC63(%rip), %rax
	movq	%rax, %rsi
	leaq	_ZSt4cout(%rip), %rax
	movq	%rax, %rdi
	call	_ZStlsISt11char_traitsIcEERSt13basic_ostreamIcT_ES5_PKc@PLT
	leaq	.LC64(%rip), %rax
	movq	%rax, %rsi
	leaq	_ZSt4cout(%rip), %rax
	movq	%rax, %rdi
	call	_ZStlsISt11char_traitsIcEERSt13basic_ostreamIcT_ES5_PKc@PLT
	leaq	.LC65(%rip), %rax
	movq	%rax, %rsi
	leaq	_ZSt4cout(%rip), %rax
	movq	%rax, %rdi
	call	_ZStlsISt11char_traitsIcEERSt13basic_ostreamIcT_ES5_PKc@PLT
	leaq	.LC66(%rip), %rax
	movq	%rax, %rsi
	leaq	_ZSt4cout(%rip), %rax
	movq	%rax, %rdi
	call	_ZStlsISt11char_traitsIcEERSt13basic_ostreamIcT_ES5_PKc@PLT
	leaq	.LC67(%rip), %rax
	movq	%rax, %rsi
	leaq	_ZSt4cout(%rip), %rax
	movq	%rax, %rdi
	call	_ZStlsISt11char_traitsIcEERSt13basic_ostreamIcT_ES5_PKc@PLT
	leaq	.LC68(%rip), %rax
	movq	%rax, %rsi
	leaq	_ZSt4cout(%rip), %rax
	movq	%rax, %rdi
	call	_ZStlsISt11char_traitsIcEERSt13basic_ostreamIcT_ES5_PKc@PLT
	leaq	.LC69(%rip), %rax
	movq	%rax, %rsi
	leaq	_ZSt4cout(%rip), %rax
	movq	%rax, %rdi
	call	_ZStlsISt11char_traitsIcEERSt13basic_ostreamIcT_ES5_PKc@PLT
	leaq	.LC70(%rip), %rax
	movq	%rax, %rsi
	leaq	_ZSt4cout(%rip), %rax
	movq	%rax, %rdi
	call	_ZStlsISt11char_traitsIcEERSt13basic_ostreamIcT_ES5_PKc@PLT
	leaq	.LC71(%rip), %rax
	movq	%rax, %rsi
	leaq	_ZSt4cout(%rip), %rax
	movq	%rax, %rdi
	call	_ZStlsISt11char_traitsIcEERSt13basic_ostreamIcT_ES5_PKc@PLT
	leaq	-5344(%rbp), %rax
	movq	%rax, %rsi
	leaq	_ZSt3cin(%rip), %rax
	movq	%rax, %rdi
	call	_ZNSirsERi@PLT
	movl	-5344(%rbp), %eax
	cmpl	$10, %eax
	ja	.L248
	movl	%eax, %eax
	leaq	0(,%rax,4), %rdx
	leaq	.L250(%rip), %rax
	movl	(%rdx,%rax), %eax
	cltq
	leaq	.L250(%rip), %rdx
	addq	%rdx, %rax
	notrack jmp	*%rax
	.section	.rodata._ZN6Wallet8expensesEv,"aG",@progbits,_ZN6Wallet8expensesEv,comdat
	.align 4
	.align 4
.L250:
	.long	.L248-.L250
	.long	.L259-.L250
	.long	.L258-.L250
	.long	.L257-.L250
	.long	.L256-.L250
	.long	.L255-.L250
	.long	.L254-.L250
	.long	.L253-.L250
	.long	.L252-.L250
	.long	.L251-.L250
	.long	.L249-.L250
	.section	.text._ZN6Wallet8expensesEv,"axG",@progbits,_ZN6Wallet8expensesEv,comdat
.L259:
	movabsq	$-9164333963126204464, %rax
	movabsq	$-5345617925412700464, %rdx
	movq	%rax, -48(%rbp)
	movq	%rdx, -40(%rbp)
	movb	$0, -32(%rbp)
	leaq	-576(%rbp), %rax
	leaq	.LC72(%rip), %rdx
	movq	%rdx, %rsi
	movq	%rax, %rdi
	call	_ZStlsISt11char_traitsIcEERSt13basic_ostreamIcT_ES5_PKc@PLT
	movq	%rax, %rdx
	movl	-5368(%rbp), %eax
	movl	%eax, %esi
	movq	%rdx, %rdi
	call	_ZNSolsEi@PLT
	movq	%rax, %rdx
	leaq	.LC73(%rip), %rax
	movq	%rax, %rsi
	movq	%rdx, %rdi
	call	_ZStlsISt11char_traitsIcEERSt13basic_ostreamIcT_ES5_PKc@PLT
	movq	%rax, %rdx
	movq	-5328(%rbp), %rax
	movq	%rax, %rsi
	movq	%rdx, %rdi
	call	_ZStlsISt11char_traitsIcEERSt13basic_ostreamIcT_ES5_PKc@PLT
	movq	%rax, %rdx
	leaq	.LC32(%rip), %rax
	movq	%rax, %rsi
	movq	%rdx, %rdi
	call	_ZStlsISt11char_traitsIcEERSt13basic_ostreamIcT_ES5_PKc@PLT
	movq	%rax, %rdx
	leaq	-48(%rbp), %rax
	movq	%rax, %rsi
	movq	%rdx, %rdi
	call	_ZStlsISt11char_traitsIcEERSt13basic_ostreamIcT_ES5_PKc@PLT
	movq	%rax, %rdx
	leaq	.LC33(%rip), %rax
	movq	%rax, %rsi
	movq	%rdx, %rdi
	call	_ZStlsISt11char_traitsIcEERSt13basic_ostreamIcT_ES5_PKc@PLT
	movq	%rax, %rdx
	movl	-5368(%rbp), %eax
	movl	%eax, %esi
	movq	%rdx, %rdi
	call	_ZNSolsEi@PLT
	jmp	.L248
.L258:
	movabsq	$-8948228246758976304, %rax
	movq	%rax, -48(%rbp)
	movw	$-19504, -40(%rbp)
	movb	$0, -38(%rbp)
	leaq	-576(%rbp), %rax
	leaq	.LC72(%rip), %rdx
	movq	%rdx, %rsi
	movq	%rax, %rdi
	call	_ZStlsISt11char_traitsIcEERSt13basic_ostreamIcT_ES5_PKc@PLT
	movq	%rax, %rdx
	movl	-5368(%rbp), %eax
	movl	%eax, %esi
	movq	%rdx, %rdi
	call	_ZNSolsEi@PLT
	movq	%rax, %rdx
	leaq	.LC73(%rip), %rax
	movq	%rax, %rsi
	movq	%rdx, %rdi
	call	_ZStlsISt11char_traitsIcEERSt13basic_ostreamIcT_ES5_PKc@PLT
	movq	%rax, %rdx
	movq	-5328(%rbp), %rax
	movq	%rax, %rsi
	movq	%rdx, %rdi
	call	_ZStlsISt11char_traitsIcEERSt13basic_ostreamIcT_ES5_PKc@PLT
	movq	%rax, %rdx
	leaq	.LC32(%rip), %rax
	movq	%rax, %rsi
	movq	%rdx, %rdi
	call	_ZStlsISt11char_traitsIcEERSt13basic_ostreamIcT_ES5_PKc@PLT
	movq	%rax, %rdx
	leaq	-48(%rbp), %rax
	movq	%rax, %rsi
	movq	%rdx, %rdi
	call	_ZStlsISt11char_traitsIcEERSt13basic_ostreamIcT_ES5_PKc@PLT
	movq	%rax, %rdx
	leaq	.LC33(%rip), %rax
	movq	%rax, %rsi
	movq	%rdx, %rdi
	call	_ZStlsISt11char_traitsIcEERSt13basic_ostreamIcT_ES5_PKc@PLT
	movq	%rax, %rdx
	movl	-5368(%rbp), %eax
	movl	%eax, %esi
	movq	%rdx, %rdi
	call	_ZNSolsEi@PLT
	jmp	.L248
.L257:
	movl	$-1093626672, -48(%rbp)
	movw	$-17200, -44(%rbp)
	movb	$0, -42(%rbp)
	leaq	-576(%rbp), %rax
	leaq	.LC72(%rip), %rdx
	movq	%rdx, %rsi
	movq	%rax, %rdi
	call	_ZStlsISt11char_traitsIcEERSt13basic_ostreamIcT_ES5_PKc@PLT
	movq	%rax, %rdx
	movl	-5368(%rbp), %eax
	movl	%eax, %esi
	movq	%rdx, %rdi
	call	_ZNSolsEi@PLT
	movq	%rax, %rdx
	leaq	.LC73(%rip), %rax
	movq	%rax, %rsi
	movq	%rdx, %rdi
	call	_ZStlsISt11char_traitsIcEERSt13basic_ostreamIcT_ES5_PKc@PLT
	movq	%rax, %rdx
	movq	-5328(%rbp), %rax
	movq	%rax, %rsi
	movq	%rdx, %rdi
	call	_ZStlsISt11char_traitsIcEERSt13basic_ostreamIcT_ES5_PKc@PLT
	movq	%rax, %rdx
	leaq	.LC32(%rip), %rax
	movq	%rax, %rsi
	movq	%rdx, %rdi
	call	_ZStlsISt11char_traitsIcEERSt13basic_ostreamIcT_ES5_PKc@PLT
	movq	%rax, %rdx
	leaq	-48(%rbp), %rax
	movq	%rax, %rsi
	movq	%rdx, %rdi
	call	_ZStlsISt11char_traitsIcEERSt13basic_ostreamIcT_ES5_PKc@PLT
	movq	%rax, %rdx
	leaq	.LC33(%rip), %rax
	movq	%rax, %rsi
	movq	%rdx, %rdi
	call	_ZStlsISt11char_traitsIcEERSt13basic_ostreamIcT_ES5_PKc@PLT
	movq	%rax, %rdx
	movl	-5368(%rbp), %eax
	movl	%eax, %esi
	movq	%rdx, %rdi
	call	_ZNSolsEi@PLT
	jmp	.L248
.L256:
	movabsq	$-5345626721539286320, %rax
	movq	%rax, -48(%rbp)
	movb	$0, -40(%rbp)
	leaq	-576(%rbp), %rax
	leaq	.LC72(%rip), %rdx
	movq	%rdx, %rsi
	movq	%rax, %rdi
	call	_ZStlsISt11char_traitsIcEERSt13basic_ostreamIcT_ES5_PKc@PLT
	movq	%rax, %rdx
	movl	-5368(%rbp), %eax
	movl	%eax, %esi
	movq	%rdx, %rdi
	call	_ZNSolsEi@PLT
	movq	%rax, %rdx
	leaq	.LC73(%rip), %rax
	movq	%rax, %rsi
	movq	%rdx, %rdi
	call	_ZStlsISt11char_traitsIcEERSt13basic_ostreamIcT_ES5_PKc@PLT
	movq	%rax, %rdx
	movq	-5328(%rbp), %rax
	movq	%rax, %rsi
	movq	%rdx, %rdi
	call	_ZStlsISt11char_traitsIcEERSt13basic_ostreamIcT_ES5_PKc@PLT
	movq	%rax, %rdx
	leaq	.LC32(%rip), %rax
	movq	%rax, %rsi
	movq	%rdx, %rdi
	call	_ZStlsISt11char_traitsIcEERSt13basic_ostreamIcT_ES5_PKc@PLT
	movq	%rax, %rdx
	leaq	-48(%rbp), %rax
	movq	%rax, %rsi
	movq	%rdx, %rdi
	call	_ZStlsISt11char_traitsIcEERSt13basic_ostreamIcT_ES5_PKc@PLT
	movq	%rax, %rdx
	leaq	.LC33(%rip), %rax
	movq	%rax, %rsi
	movq	%rdx, %rdi
	call	_ZStlsISt11char_traitsIcEERSt13basic_ostreamIcT_ES5_PKc@PLT
	movq	%rax, %rdx
	movl	-5368(%rbp), %eax
	movl	%eax, %esi
	movq	%rdx, %rdi
	call	_ZNSolsEi@PLT
	jmp	.L248
.L255:
	movabsq	$-5705919089758658864, %rax
	movabsq	$-5705864118254127152, %rdx
	movq	%rax, -48(%rbp)
	movq	%rdx, -40(%rbp)
	movl	$-1194279472, -32(%rbp)
	movw	$-18992, -28(%rbp)
	movb	$0, -26(%rbp)
	leaq	-576(%rbp), %rax
	leaq	.LC72(%rip), %rdx
	movq	%rdx, %rsi
	movq	%rax, %rdi
	call	_ZStlsISt11char_traitsIcEERSt13basic_ostreamIcT_ES5_PKc@PLT
	movq	%rax, %rdx
	movl	-5368(%rbp), %eax
	movl	%eax, %esi
	movq	%rdx, %rdi
	call	_ZNSolsEi@PLT
	movq	%rax, %rdx
	leaq	.LC73(%rip), %rax
	movq	%rax, %rsi
	movq	%rdx, %rdi
	call	_ZStlsISt11char_traitsIcEERSt13basic_ostreamIcT_ES5_PKc@PLT
	movq	%rax, %rdx
	movq	-5328(%rbp), %rax
	movq	%rax, %rsi
	movq	%rdx, %rdi
	call	_ZStlsISt11char_traitsIcEERSt13basic_ostreamIcT_ES5_PKc@PLT
	movq	%rax, %rdx
	leaq	.LC32(%rip), %rax
	movq	%rax, %rsi
	movq	%rdx, %rdi
	call	_ZStlsISt11char_traitsIcEERSt13basic_ostreamIcT_ES5_PKc@PLT
	movq	%rax, %rdx
	leaq	-48(%rbp), %rax
	movq	%rax, %rsi
	movq	%rdx, %rdi
	call	_ZStlsISt11char_traitsIcEERSt13basic_ostreamIcT_ES5_PKc@PLT
	movq	%rax, %rdx
	leaq	.LC33(%rip), %rax
	movq	%rax, %rsi
	movq	%rdx, %rdi
	call	_ZStlsISt11char_traitsIcEERSt13basic_ostreamIcT_ES5_PKc@PLT
	movq	%rax, %rdx
	movl	-5368(%rbp), %eax
	movl	%eax, %esi
	movq	%rdx, %rdi
	call	_ZNSolsEi@PLT
	jmp	.L248
.L254:
	movabsq	$-5705861919230877744, %rax
	movq	%rax, -48(%rbp)
	movl	$-1160740655, -40(%rbp)
	movw	$-18224, -36(%rbp)
	movb	$0, -34(%rbp)
	leaq	-576(%rbp), %rax
	leaq	.LC72(%rip), %rdx
	movq	%rdx, %rsi
	movq	%rax, %rdi
	call	_ZStlsISt11char_traitsIcEERSt13basic_ostreamIcT_ES5_PKc@PLT
	movq	%rax, %rdx
	movl	-5368(%rbp), %eax
	movl	%eax, %esi
	movq	%rdx, %rdi
	call	_ZNSolsEi@PLT
	movq	%rax, %rdx
	leaq	.LC73(%rip), %rax
	movq	%rax, %rsi
	movq	%rdx, %rdi
	call	_ZStlsISt11char_traitsIcEERSt13basic_ostreamIcT_ES5_PKc@PLT
	movq	%rax, %rdx
	movq	-5328(%rbp), %rax
	movq	%rax, %rsi
	movq	%rdx, %rdi
	call	_ZStlsISt11char_traitsIcEERSt13basic_ostreamIcT_ES5_PKc@PLT
	movq	%rax, %rdx
	leaq	.LC32(%rip), %rax
	movq	%rax, %rsi
	movq	%rdx, %rdi
	call	_ZStlsISt11char_traitsIcEERSt13basic_ostreamIcT_ES5_PKc@PLT
	movq	%rax, %rdx
	leaq	-48(%rbp), %rax
	movq	%rax, %rsi
	movq	%rdx, %rdi
	call	_ZStlsISt11char_traitsIcEERSt13basic_ostreamIcT_ES5_PKc@PLT
	movq	%rax, %rdx
	leaq	.LC33(%rip), %rax
	movq	%rax, %rsi
	movq	%rdx, %rdi
	call	_ZStlsISt11char_traitsIcEERSt13basic_ostreamIcT_ES5_PKc@PLT
	movq	%rax, %rdx
	movl	-5368(%rbp), %eax
	movl	%eax, %esi
	movq	%rdx, %rdi
	call	_ZNSolsEi@PLT
	jmp	.L248
.L253:
	movabsq	$-5417620549003010096, %rax
	movabsq	$-8371766395011038255, %rdx
	movq	%rax, -48(%rbp)
	movq	%rdx, -40(%rbp)
	movb	$0, -32(%rbp)
	leaq	-576(%rbp), %rax
	leaq	.LC72(%rip), %rdx
	movq	%rdx, %rsi
	movq	%rax, %rdi
	call	_ZStlsISt11char_traitsIcEERSt13basic_ostreamIcT_ES5_PKc@PLT
	movq	%rax, %rdx
	movl	-5368(%rbp), %eax
	movl	%eax, %esi
	movq	%rdx, %rdi
	call	_ZNSolsEi@PLT
	movq	%rax, %rdx
	leaq	.LC73(%rip), %rax
	movq	%rax, %rsi
	movq	%rdx, %rdi
	call	_ZStlsISt11char_traitsIcEERSt13basic_ostreamIcT_ES5_PKc@PLT
	movq	%rax, %rdx
	movq	-5328(%rbp), %rax
	movq	%rax, %rsi
	movq	%rdx, %rdi
	call	_ZStlsISt11char_traitsIcEERSt13basic_ostreamIcT_ES5_PKc@PLT
	movq	%rax, %rdx
	leaq	.LC32(%rip), %rax
	movq	%rax, %rsi
	movq	%rdx, %rdi
	call	_ZStlsISt11char_traitsIcEERSt13basic_ostreamIcT_ES5_PKc@PLT
	movq	%rax, %rdx
	leaq	-48(%rbp), %rax
	movq	%rax, %rsi
	movq	%rdx, %rdi
	call	_ZStlsISt11char_traitsIcEERSt13basic_ostreamIcT_ES5_PKc@PLT
	movq	%rax, %rdx
	leaq	.LC33(%rip), %rax
	movq	%rax, %rsi
	movq	%rdx, %rdi
	call	_ZStlsISt11char_traitsIcEERSt13basic_ostreamIcT_ES5_PKc@PLT
	movq	%rax, %rdx
	movl	-5368(%rbp), %eax
	movl	%eax, %esi
	movq	%rdx, %rdi
	call	_ZNSolsEi@PLT
	jmp	.L248
.L252:
	movabsq	$-9164333962941652528, %rax
	movq	%rax, -48(%rbp)
	movw	$-32047, -40(%rbp)
	movb	$0, -38(%rbp)
	leaq	-576(%rbp), %rax
	leaq	.LC72(%rip), %rdx
	movq	%rdx, %rsi
	movq	%rax, %rdi
	call	_ZStlsISt11char_traitsIcEERSt13basic_ostreamIcT_ES5_PKc@PLT
	movq	%rax, %rdx
	movl	-5368(%rbp), %eax
	movl	%eax, %esi
	movq	%rdx, %rdi
	call	_ZNSolsEi@PLT
	movq	%rax, %rdx
	leaq	.LC73(%rip), %rax
	movq	%rax, %rsi
	movq	%rdx, %rdi
	call	_ZStlsISt11char_traitsIcEERSt13basic_ostreamIcT_ES5_PKc@PLT
	movq	%rax, %rdx
	movq	-5328(%rbp), %rax
	movq	%rax, %rsi
	movq	%rdx, %rdi
	call	_ZStlsISt11char_traitsIcEERSt13basic_ostreamIcT_ES5_PKc@PLT
	movq	%rax, %rdx
	leaq	.LC32(%rip), %rax
	movq	%rax, %rsi
	movq	%rdx, %rdi
	call	_ZStlsISt11char_traitsIcEERSt13basic_ostreamIcT_ES5_PKc@PLT
	movq	%rax, %rdx
	leaq	-48(%rbp), %rax
	movq	%rax, %rsi
	movq	%rdx, %rdi
	call	_ZStlsISt11char_traitsIcEERSt13basic_ostreamIcT_ES5_PKc@PLT
	movq	%rax, %rdx
	leaq	.LC33(%rip), %rax
	movq	%rax, %rsi
	movq	%rdx, %rdi
	call	_ZStlsISt11char_traitsIcEERSt13basic_ostreamIcT_ES5_PKc@PLT
	movq	%rax, %rdx
	movl	-5368(%rbp), %eax
	movl	%eax, %esi
	movq	%rdx, %rdi
	call	_ZNSolsEi@PLT
	jmp	.L248
.L251:
	movabsq	$-4769117595824446768, %rax
	movabsq	$-9164333962941660719, %rdx
	movq	%rax, -48(%rbp)
	movq	%rdx, -40(%rbp)
	movw	$-32047, -32(%rbp)
	movb	$0, -30(%rbp)
	leaq	-576(%rbp), %rax
	leaq	.LC72(%rip), %rdx
	movq	%rdx, %rsi
	movq	%rax, %rdi
	call	_ZStlsISt11char_traitsIcEERSt13basic_ostreamIcT_ES5_PKc@PLT
	movq	%rax, %rdx
	movl	-5368(%rbp), %eax
	movl	%eax, %esi
	movq	%rdx, %rdi
	call	_ZNSolsEi@PLT
	movq	%rax, %rdx
	leaq	.LC73(%rip), %rax
	movq	%rax, %rsi
	movq	%rdx, %rdi
	call	_ZStlsISt11char_traitsIcEERSt13basic_ostreamIcT_ES5_PKc@PLT
	movq	%rax, %rdx
	movq	-5328(%rbp), %rax
	movq	%rax, %rsi
	movq	%rdx, %rdi
	call	_ZStlsISt11char_traitsIcEERSt13basic_ostreamIcT_ES5_PKc@PLT
	movq	%rax, %rdx
	leaq	.LC32(%rip), %rax
	movq	%rax, %rsi
	movq	%rdx, %rdi
	call	_ZStlsISt11char_traitsIcEERSt13basic_ostreamIcT_ES5_PKc@PLT
	movq	%rax, %rdx
	leaq	-48(%rbp), %rax
	movq	%rax, %rsi
	movq	%rdx, %rdi
	call	_ZStlsISt11char_traitsIcEERSt13basic_ostreamIcT_ES5_PKc@PLT
	movq	%rax, %rdx
	leaq	.LC33(%rip), %rax
	movq	%rax, %rsi
	movq	%rdx, %rdi
	call	_ZStlsISt11char_traitsIcEERSt13basic_ostreamIcT_ES5_PKc@PLT
	movq	%rax, %rdx
	movl	-5368(%rbp), %eax
	movl	%eax, %esi
	movq	%rdx, %rdi
	call	_ZNSolsEi@PLT
	jmp	.L248
.L249:
	movabsq	$-5489743009932012336, %rax
	movq	%rax, -48(%rbp)
	movl	$-1244610864, -40(%rbp)
	movb	$0, -36(%rbp)
	leaq	-576(%rbp), %rax
	leaq	.LC72(%rip), %rdx
	movq	%rdx, %rsi
	movq	%rax, %rdi
	call	_ZStlsISt11char_traitsIcEERSt13basic_ostreamIcT_ES5_PKc@PLT
	movq	%rax, %rdx
	movl	-5368(%rbp), %eax
	movl	%eax, %esi
	movq	%rdx, %rdi
	call	_ZNSolsEi@PLT
	movq	%rax, %rdx
	leaq	.LC73(%rip), %rax
	movq	%rax, %rsi
	movq	%rdx, %rdi
	call	_ZStlsISt11char_traitsIcEERSt13basic_ostreamIcT_ES5_PKc@PLT
	movq	%rax, %rdx
	movq	-5328(%rbp), %rax
	movq	%rax, %rsi
	movq	%rdx, %rdi
	call	_ZStlsISt11char_traitsIcEERSt13basic_ostreamIcT_ES5_PKc@PLT
	movq	%rax, %rdx
	leaq	.LC32(%rip), %rax
	movq	%rax, %rsi
	movq	%rdx, %rdi
	call	_ZStlsISt11char_traitsIcEERSt13basic_ostreamIcT_ES5_PKc@PLT
	movq	%rax, %rdx
	leaq	-48(%rbp), %rax
	movq	%rax, %rsi
	movq	%rdx, %rdi
	call	_ZStlsISt11char_traitsIcEERSt13basic_ostreamIcT_ES5_PKc@PLT
	movq	%rax, %rdx
	leaq	.LC33(%rip), %rax
	movq	%rax, %rsi
	movq	%rdx, %rdi
	call	_ZStlsISt11char_traitsIcEERSt13basic_ostreamIcT_ES5_PKc@PLT
	movq	%rax, %rdx
	movl	-5368(%rbp), %eax
	movl	%eax, %esi
	movq	%rdx, %rdi
	call	_ZNSolsEi@PLT
.LEHE95:
	nop
.L248:
	leaq	-576(%rbp), %rax
	movq	%rax, %rdi
	call	_ZNSt14basic_ofstreamIcSt11char_traitsIcEED1Ev@PLT
.L247:
	leaq	-2688(%rbp), %rax
	movq	%rax, %rdi
	call	_ZNSt14basic_ifstreamIcSt11char_traitsIcEED1Ev@PLT
	leaq	-3216(%rbp), %rax
	movq	%rax, %rdi
	call	_ZNSt14basic_ifstreamIcSt11char_traitsIcEED1Ev@PLT
	leaq	-5296(%rbp), %rax
	movq	%rax, %rdi
	call	_ZNSt7__cxx1112basic_stringIcSt11char_traitsIcESaIcEED1Ev@PLT
	movq	-24(%rbp), %rax
	subq	%fs:40, %rax
	je	.L272
	jmp	.L285
.L283:
	endbr64
	movq	%rax, %rbx
	leaq	-3728(%rbp), %rax
	movq	%rax, %rdi
	call	_ZNSt14basic_ofstreamIcSt11char_traitsIcEED1Ev@PLT
	jmp	.L261
.L282:
	endbr64
	movq	%rax, %rbx
.L261:
	leaq	-4240(%rbp), %rax
	movq	%rax, %rdi
	call	_ZNSt14basic_ofstreamIcSt11char_traitsIcEED1Ev@PLT
	jmp	.L262
.L281:
	endbr64
	movq	%rax, %rbx
.L262:
	leaq	-4752(%rbp), %rax
	movq	%rax, %rdi
	call	_ZNSt14basic_ofstreamIcSt11char_traitsIcEED1Ev@PLT
	jmp	.L263
.L280:
	endbr64
	movq	%rax, %rbx
.L263:
	leaq	-5264(%rbp), %rax
	movq	%rax, %rdi
	call	_ZNSt14basic_ofstreamIcSt11char_traitsIcEED1Ev@PLT
	jmp	.L264
.L279:
	endbr64
	movq	%rax, %rbx
.L264:
	leaq	-576(%rbp), %rax
	movq	%rax, %rdi
	call	_ZNSt14basic_ifstreamIcSt11char_traitsIcEED1Ev@PLT
	jmp	.L265
.L278:
	endbr64
	movq	%rax, %rbx
.L265:
	leaq	-1104(%rbp), %rax
	movq	%rax, %rdi
	call	_ZNSt14basic_ifstreamIcSt11char_traitsIcEED1Ev@PLT
	jmp	.L266
.L277:
	endbr64
	movq	%rax, %rbx
.L266:
	leaq	-1632(%rbp), %rax
	movq	%rax, %rdi
	call	_ZNSt14basic_ifstreamIcSt11char_traitsIcEED1Ev@PLT
	jmp	.L267
.L276:
	endbr64
	movq	%rax, %rbx
.L267:
	leaq	-2160(%rbp), %rax
	movq	%rax, %rdi
	call	_ZNSt14basic_ifstreamIcSt11char_traitsIcEED1Ev@PLT
	jmp	.L268
.L284:
	endbr64
	movq	%rax, %rbx
	leaq	-576(%rbp), %rax
	movq	%rax, %rdi
	call	_ZNSt14basic_ofstreamIcSt11char_traitsIcEED1Ev@PLT
	jmp	.L268
.L275:
	endbr64
	movq	%rax, %rbx
.L268:
	leaq	-2688(%rbp), %rax
	movq	%rax, %rdi
	call	_ZNSt14basic_ifstreamIcSt11char_traitsIcEED1Ev@PLT
	jmp	.L270
.L274:
	endbr64
	movq	%rax, %rbx
.L270:
	leaq	-3216(%rbp), %rax
	movq	%rax, %rdi
	call	_ZNSt14basic_ifstreamIcSt11char_traitsIcEED1Ev@PLT
	jmp	.L271
.L273:
	endbr64
	movq	%rax, %rbx
.L271:
	leaq	-5296(%rbp), %rax
	movq	%rax, %rdi
	call	_ZNSt7__cxx1112basic_stringIcSt11char_traitsIcESaIcEED1Ev@PLT
	movq	%rbx, %rax
	movq	%rax, %rdi
.LEHB96:
	call	_Unwind_Resume@PLT
.LEHE96:
.L285:
	call	__stack_chk_fail@PLT
.L272:
	movq	-8(%rbp), %rbx
	leave
	.cfi_def_cfa 7, 8
	ret
	.cfi_endproc
.LFE5086:
	.section	.gcc_except_table
.LLSDA5086:
	.byte	0xff
	.byte	0xff
	.byte	0x1
	.uleb128 .LLSDACSE5086-.LLSDACSB5086
.LLSDACSB5086:
	.uleb128 .LEHB83-.LFB5086
	.uleb128 .LEHE83-.LEHB83
	.uleb128 .L273-.LFB5086
	.uleb128 0
	.uleb128 .LEHB84-.LFB5086
	.uleb128 .LEHE84-.LEHB84
	.uleb128 .L274-.LFB5086
	.uleb128 0
	.uleb128 .LEHB85-.LFB5086
	.uleb128 .LEHE85-.LEHB85
	.uleb128 .L275-.LFB5086
	.uleb128 0
	.uleb128 .LEHB86-.LFB5086
	.uleb128 .LEHE86-.LEHB86
	.uleb128 .L276-.LFB5086
	.uleb128 0
	.uleb128 .LEHB87-.LFB5086
	.uleb128 .LEHE87-.LEHB87
	.uleb128 .L277-.LFB5086
	.uleb128 0
	.uleb128 .LEHB88-.LFB5086
	.uleb128 .LEHE88-.LEHB88
	.uleb128 .L278-.LFB5086
	.uleb128 0
	.uleb128 .LEHB89-.LFB5086
	.uleb128 .LEHE89-.LEHB89
	.uleb128 .L279-.LFB5086
	.uleb128 0
	.uleb128 .LEHB90-.LFB5086
	.uleb128 .LEHE90-.LEHB90
	.uleb128 .L280-.LFB5086
	.uleb128 0
	.uleb128 .LEHB91-.LFB5086
	.uleb128 .LEHE91-.LEHB91
	.uleb128 .L281-.LFB5086
	.uleb128 0
	.uleb128 .LEHB92-.LFB5086
	.uleb128 .LEHE92-.LEHB92
	.uleb128 .L282-.LFB5086
	.uleb128 0
	.uleb128 .LEHB93-.LFB5086
	.uleb128 .LEHE93-.LEHB93
	.uleb128 .L283-.LFB5086
	.uleb128 0
	.uleb128 .LEHB94-.LFB5086
	.uleb128 .LEHE94-.LEHB94
	.uleb128 .L275-.LFB5086
	.uleb128 0
	.uleb128 .LEHB95-.LFB5086
	.uleb128 .LEHE95-.LEHB95
	.uleb128 .L284-.LFB5086
	.uleb128 0
	.uleb128 .LEHB96-.LFB5086
	.uleb128 .LEHE96-.LEHB96
	.uleb128 0
	.uleb128 0
.LLSDACSE5086:
	.section	.text._ZN6Wallet8expensesEv,"axG",@progbits,_ZN6Wallet8expensesEv,comdat
	.size	_ZN6Wallet8expensesEv, .-_ZN6Wallet8expensesEv
	.section	.text._ZN6Wallet14print_expensesEv,"axG",@progbits,_ZN6Wallet14print_expensesEv,comdat
	.align 2
	.weak	_ZN6Wallet14print_expensesEv
	.type	_ZN6Wallet14print_expensesEv, @function
_ZN6Wallet14print_expensesEv:
.LFB5087:
	.cfi_startproc
	.cfi_personality 0x9b,DW.ref.__gxx_personality_v0
	.cfi_lsda 0x1b,.LLSDA5087
	endbr64
	pushq	%rbp
	.cfi_def_cfa_offset 16
	.cfi_offset 6, -16
	movq	%rsp, %rbp
	.cfi_def_cfa_register 6
	pushq	%rbx
	subq	$872, %rsp
	.cfi_offset 3, -24
	movq	%rdi, -872(%rbp)
	movq	%fs:40, %rax
	movq	%rax, -24(%rbp)
	xorl	%eax, %eax
	leaq	-816(%rbp), %rax
	movq	%rax, %rdi
.LEHB97:
	call	_ZNSt14basic_ifstreamIcSt11char_traitsIcEEC1Ev@PLT
.LEHE97:
	leaq	-816(%rbp), %rax
	movl	$8, %edx
	leaq	.LC36(%rip), %rcx
	movq	%rcx, %rsi
	movq	%rax, %rdi
.LEHB98:
	call	_ZNSt14basic_ifstreamIcSt11char_traitsIcEE4openEPKcSt13_Ios_Openmode@PLT
.LEHE98:
	movl	$0, -852(%rbp)
	leaq	-848(%rbp), %rax
	movq	%rax, %rdi
	call	_ZNSt7__cxx1112basic_stringIcSt11char_traitsIcESaIcEEC1Ev@PLT
	jmp	.L287
.L288:
	leaq	-288(%rbp), %rdx
	leaq	-816(%rbp), %rax
	movq	%rdx, %rsi
	movq	%rax, %rdi
.LEHB99:
	call	_ZStrsIcSt11char_traitsIcEERSt13basic_istreamIT_T0_ES6_PS3_
	leaq	-288(%rbp), %rax
	movq	%rax, %rsi
	leaq	_ZSt4cout(%rip), %rax
	movq	%rax, %rdi
	call	_ZStlsISt11char_traitsIcEERSt13basic_ostreamIcT_ES5_PKc@PLT
	movq	%rax, %rdx
	leaq	.LC3(%rip), %rax
	movq	%rax, %rsi
	movq	%rdx, %rdi
	call	_ZStlsISt11char_traitsIcEERSt13basic_ostreamIcT_ES5_PKc@PLT
	addl	$1, -852(%rbp)
	movl	-852(%rbp), %edx
	movslq	%edx, %rax
	imulq	$-2004318071, %rax, %rax
	shrq	$32, %rax
	addl	%edx, %eax
	sarl	$3, %eax
	movl	%edx, %ecx
	sarl	$31, %ecx
	subl	%ecx, %eax
	movl	%eax, %ecx
	sall	$4, %ecx
	subl	%eax, %ecx
	movl	%edx, %eax
	subl	%ecx, %eax
	testl	%eax, %eax
	jne	.L287
	leaq	-848(%rbp), %rdx
	leaq	-816(%rbp), %rax
	movq	%rdx, %rsi
	movq	%rax, %rdi
	call	_ZStrsIcSt11char_traitsIcESaIcEERSt13basic_istreamIT_T0_ES7_RNSt7__cxx1112basic_stringIS4_S5_T1_EE@PLT
	leaq	-848(%rbp), %rax
	leaq	.LC1(%rip), %rdx
	movq	%rdx, %rsi
	movq	%rax, %rdi
	call	_ZNSt7__cxx1112basic_stringIcSt11char_traitsIcESaIcEEaSEPKc@PLT
	leaq	.LC35(%rip), %rax
	movq	%rax, %rsi
	leaq	_ZSt4cout(%rip), %rax
	movq	%rax, %rdi
	call	_ZStlsISt11char_traitsIcEERSt13basic_ostreamIcT_ES5_PKc@PLT
.L287:
	leaq	-816(%rbp), %rax
	addq	$256, %rax
	movq	%rax, %rdi
	call	_ZNKSt9basic_iosIcSt11char_traitsIcEE3eofEv@PLT
	xorl	$1, %eax
	testb	%al, %al
	jne	.L288
	leaq	-816(%rbp), %rax
	movq	%rax, %rdi
	call	_ZNSt14basic_ifstreamIcSt11char_traitsIcEE5closeEv@PLT
.LEHE99:
	leaq	-848(%rbp), %rax
	movq	%rax, %rdi
	call	_ZNSt7__cxx1112basic_stringIcSt11char_traitsIcESaIcEED1Ev@PLT
	leaq	-816(%rbp), %rax
	movq	%rax, %rdi
	call	_ZNSt14basic_ifstreamIcSt11char_traitsIcEED1Ev@PLT
	movq	-24(%rbp), %rax
	subq	%fs:40, %rax
	je	.L291
	jmp	.L294
.L293:
	endbr64
	movq	%rax, %rbx
	leaq	-848(%rbp), %rax
	movq	%rax, %rdi
	call	_ZNSt7__cxx1112basic_stringIcSt11char_traitsIcESaIcEED1Ev@PLT
	jmp	.L290
.L292:
	endbr64
	movq	%rax, %rbx
.L290:
	leaq	-816(%rbp), %rax
	movq	%rax, %rdi
	call	_ZNSt14basic_ifstreamIcSt11char_traitsIcEED1Ev@PLT
	movq	%rbx, %rax
	movq	%rax, %rdi
.LEHB100:
	call	_Unwind_Resume@PLT
.LEHE100:
.L294:
	call	__stack_chk_fail@PLT
.L291:
	movq	-8(%rbp), %rbx
	leave
	.cfi_def_cfa 7, 8
	ret
	.cfi_endproc
.LFE5087:
	.section	.gcc_except_table
.LLSDA5087:
	.byte	0xff
	.byte	0xff
	.byte	0x1
	.uleb128 .LLSDACSE5087-.LLSDACSB5087
.LLSDACSB5087:
	.uleb128 .LEHB97-.LFB5087
	.uleb128 .LEHE97-.LEHB97
	.uleb128 0
	.uleb128 0
	.uleb128 .LEHB98-.LFB5087
	.uleb128 .LEHE98-.LEHB98
	.uleb128 .L292-.LFB5087
	.uleb128 0
	.uleb128 .LEHB99-.LFB5087
	.uleb128 .LEHE99-.LEHB99
	.uleb128 .L293-.LFB5087
	.uleb128 0
	.uleb128 .LEHB100-.LFB5087
	.uleb128 .LEHE100-.LEHB100
	.uleb128 0
	.uleb128 0
.LLSDACSE5087:
	.section	.text._ZN6Wallet14print_expensesEv,"axG",@progbits,_ZN6Wallet14print_expensesEv,comdat
	.size	_ZN6Wallet14print_expensesEv, .-_ZN6Wallet14print_expensesEv
	.section	.rodata
	.align 8
.LC74:
	.string	"\n\320\247\320\260\321\211\320\265 \320\262\321\201\320\265\320\263\320\276 \321\202\320\260\321\200\321\202\321\213 \320\275\320\260 \320\272\320\260\321\202\320\265\320\263\320\276\321\200\320\270\321\216: "
	.section	.text._ZN6Wallet21kategory_expenses_colEv,"axG",@progbits,_ZN6Wallet21kategory_expenses_colEv,comdat
	.align 2
	.weak	_ZN6Wallet21kategory_expenses_colEv
	.type	_ZN6Wallet21kategory_expenses_colEv, @function
_ZN6Wallet21kategory_expenses_colEv:
.LFB5088:
	.cfi_startproc
	.cfi_personality 0x9b,DW.ref.__gxx_personality_v0
	.cfi_lsda 0x1b,.LLSDA5088
	endbr64
	pushq	%rbp
	.cfi_def_cfa_offset 16
	.cfi_offset 6, -16
	movq	%rsp, %rbp
	.cfi_def_cfa_register 6
	pushq	%rbx
	subq	$744, %rsp
	.cfi_offset 3, -24
	movq	%rdi, -744(%rbp)
	movq	%fs:40, %rax
	movq	%rax, -24(%rbp)
	xorl	%eax, %eax
	leaq	-688(%rbp), %rax
	movq	%rax, %rdi
	call	_ZNSt3mapINSt7__cxx1112basic_stringIcSt11char_traitsIcESaIcEEEiSt4lessIS5_ESaISt4pairIKS5_iEEEC1Ev
	leaq	-544(%rbp), %rax
	movq	%rax, %rdi
.LEHB101:
	call	_ZNSt14basic_ifstreamIcSt11char_traitsIcEEC1Ev@PLT
.LEHE101:
	leaq	-544(%rbp), %rax
	movl	$8, %edx
	leaq	.LC36(%rip), %rcx
	movq	%rcx, %rsi
	movq	%rax, %rdi
.LEHB102:
	call	_ZNSt14basic_ifstreamIcSt11char_traitsIcEE4openEPKcSt13_Ios_Openmode@PLT
.LEHE102:
	movl	$0, -728(%rbp)
	movl	$0, -724(%rbp)
	leaq	-640(%rbp), %rax
	movq	%rax, %rdi
	call	_ZNSt7__cxx1112basic_stringIcSt11char_traitsIcESaIcEEC1Ev@PLT
	leaq	-720(%rbp), %rax
	movq	%rax, %rdi
	call	_ZNSt6vectorINSt7__cxx1112basic_stringIcSt11char_traitsIcESaIcEEESaIS5_EEC1Ev
	leaq	-608(%rbp), %rax
	movq	%rax, %rdi
	call	_ZNSt7__cxx1112basic_stringIcSt11char_traitsIcESaIcEEC1Ev@PLT
	leaq	-576(%rbp), %rax
	movq	%rax, %rdi
	call	_ZNSt7__cxx1112basic_stringIcSt11char_traitsIcESaIcEEC1Ev@PLT
	jmp	.L296
.L297:
	addl	$1, -728(%rbp)
	leaq	-576(%rbp), %rdx
	leaq	-544(%rbp), %rax
	movq	%rdx, %rsi
	movq	%rax, %rdi
.LEHB103:
	call	_ZStrsIcSt11char_traitsIcESaIcEERSt13basic_istreamIT_T0_ES7_RNSt7__cxx1112basic_stringIS4_S5_T1_EE@PLT
	leaq	-576(%rbp), %rax
	leaq	.LC38(%rip), %rdx
	movq	%rdx, %rsi
	movq	%rax, %rdi
	call	_ZSteqIcSt11char_traitsIcESaIcEEbRKNSt7__cxx1112basic_stringIT_T0_T1_EEPKS5_
	testb	%al, %al
	je	.L296
	leaq	-608(%rbp), %rdx
	leaq	-544(%rbp), %rax
	movq	%rdx, %rsi
	movq	%rax, %rdi
	call	_ZStrsIcSt11char_traitsIcESaIcEERSt13basic_istreamIT_T0_ES7_RNSt7__cxx1112basic_stringIS4_S5_T1_EE@PLT
	leaq	-608(%rbp), %rdx
	leaq	-688(%rbp), %rax
	movq	%rdx, %rsi
	movq	%rax, %rdi
	call	_ZNSt3mapINSt7__cxx1112basic_stringIcSt11char_traitsIcESaIcEEEiSt4lessIS5_ESaISt4pairIKS5_iEEEixERS9_
	movl	(%rax), %edx
	addl	$1, %edx
	movl	%edx, (%rax)
	leaq	-608(%rbp), %rdx
	leaq	-720(%rbp), %rax
	movq	%rdx, %rsi
	movq	%rax, %rdi
	call	_ZNSt6vectorINSt7__cxx1112basic_stringIcSt11char_traitsIcESaIcEEESaIS5_EE9push_backERKS5_
	leaq	-608(%rbp), %rdx
	leaq	-688(%rbp), %rax
	movq	%rdx, %rsi
	movq	%rax, %rdi
	call	_ZNSt3mapINSt7__cxx1112basic_stringIcSt11char_traitsIcESaIcEEEiSt4lessIS5_ESaISt4pairIKS5_iEEEixERS9_
	movl	(%rax), %eax
	cmpl	%eax, -724(%rbp)
	setl	%al
	testb	%al, %al
	je	.L296
	leaq	-608(%rbp), %rdx
	leaq	-688(%rbp), %rax
	movq	%rdx, %rsi
	movq	%rax, %rdi
	call	_ZNSt3mapINSt7__cxx1112basic_stringIcSt11char_traitsIcESaIcEEEiSt4lessIS5_ESaISt4pairIKS5_iEEEixERS9_
	movl	(%rax), %eax
	movl	%eax, -724(%rbp)
	leaq	-608(%rbp), %rdx
	leaq	-640(%rbp), %rax
	movq	%rdx, %rsi
	movq	%rax, %rdi
	call	_ZNSt7__cxx1112basic_stringIcSt11char_traitsIcESaIcEEaSERKS4_@PLT
.L296:
	leaq	-544(%rbp), %rax
	addq	$256, %rax
	movq	%rax, %rdi
	call	_ZNKSt9basic_iosIcSt11char_traitsIcEE3eofEv@PLT
	xorl	$1, %eax
	testb	%al, %al
	jne	.L297
	leaq	.LC74(%rip), %rax
	movq	%rax, %rsi
	leaq	_ZSt4cout(%rip), %rax
	movq	%rax, %rdi
	call	_ZStlsISt11char_traitsIcEERSt13basic_ostreamIcT_ES5_PKc@PLT
	movq	%rax, %rdx
	leaq	-640(%rbp), %rax
	movq	%rax, %rsi
	movq	%rdx, %rdi
	call	_ZStlsIcSt11char_traitsIcESaIcEERSt13basic_ostreamIT_T0_ES7_RKNSt7__cxx1112basic_stringIS4_S5_T1_EE@PLT
	movq	%rax, %rdx
	leaq	.LC40(%rip), %rax
	movq	%rax, %rsi
	movq	%rdx, %rdi
	call	_ZStlsISt11char_traitsIcEERSt13basic_ostreamIcT_ES5_PKc@PLT
	movq	%rax, %rdx
	movl	-724(%rbp), %eax
	movl	%eax, %esi
	movq	%rdx, %rdi
	call	_ZNSolsEi@PLT
	movq	%rax, %rdx
	leaq	.LC41(%rip), %rax
	movq	%rax, %rsi
	movq	%rdx, %rdi
	call	_ZStlsISt11char_traitsIcEERSt13basic_ostreamIcT_ES5_PKc@PLT
	movq	_ZSt4endlIcSt11char_traitsIcEERSt13basic_ostreamIT_T0_ES6_@GOTPCREL(%rip), %rdx
	movq	%rdx, %rsi
	movq	%rax, %rdi
	call	_ZNSolsEPFRSoS_E@PLT
.LEHE103:
	leaq	-576(%rbp), %rax
	movq	%rax, %rdi
	call	_ZNSt7__cxx1112basic_stringIcSt11char_traitsIcESaIcEED1Ev@PLT
	leaq	-608(%rbp), %rax
	movq	%rax, %rdi
	call	_ZNSt7__cxx1112basic_stringIcSt11char_traitsIcESaIcEED1Ev@PLT
	leaq	-720(%rbp), %rax
	movq	%rax, %rdi
	call	_ZNSt6vectorINSt7__cxx1112basic_stringIcSt11char_traitsIcESaIcEEESaIS5_EED1Ev
	leaq	-640(%rbp), %rax
	movq	%rax, %rdi
	call	_ZNSt7__cxx1112basic_stringIcSt11char_traitsIcESaIcEED1Ev@PLT
	leaq	-544(%rbp), %rax
	movq	%rax, %rdi
	call	_ZNSt14basic_ifstreamIcSt11char_traitsIcEED1Ev@PLT
	leaq	-688(%rbp), %rax
	movq	%rax, %rdi
	call	_ZNSt3mapINSt7__cxx1112basic_stringIcSt11char_traitsIcESaIcEEEiSt4lessIS5_ESaISt4pairIKS5_iEEED1Ev
	movq	-24(%rbp), %rax
	subq	%fs:40, %rax
	je	.L301
	jmp	.L305
.L304:
	endbr64
	movq	%rax, %rbx
	leaq	-576(%rbp), %rax
	movq	%rax, %rdi
	call	_ZNSt7__cxx1112basic_stringIcSt11char_traitsIcESaIcEED1Ev@PLT
	leaq	-608(%rbp), %rax
	movq	%rax, %rdi
	call	_ZNSt7__cxx1112basic_stringIcSt11char_traitsIcESaIcEED1Ev@PLT
	leaq	-720(%rbp), %rax
	movq	%rax, %rdi
	call	_ZNSt6vectorINSt7__cxx1112basic_stringIcSt11char_traitsIcESaIcEEESaIS5_EED1Ev
	leaq	-640(%rbp), %rax
	movq	%rax, %rdi
	call	_ZNSt7__cxx1112basic_stringIcSt11char_traitsIcESaIcEED1Ev@PLT
	jmp	.L299
.L303:
	endbr64
	movq	%rax, %rbx
.L299:
	leaq	-544(%rbp), %rax
	movq	%rax, %rdi
	call	_ZNSt14basic_ifstreamIcSt11char_traitsIcEED1Ev@PLT
	jmp	.L300
.L302:
	endbr64
	movq	%rax, %rbx
.L300:
	leaq	-688(%rbp), %rax
	movq	%rax, %rdi
	call	_ZNSt3mapINSt7__cxx1112basic_stringIcSt11char_traitsIcESaIcEEEiSt4lessIS5_ESaISt4pairIKS5_iEEED1Ev
	movq	%rbx, %rax
	movq	%rax, %rdi
.LEHB104:
	call	_Unwind_Resume@PLT
.LEHE104:
.L305:
	call	__stack_chk_fail@PLT
.L301:
	movq	-8(%rbp), %rbx
	leave
	.cfi_def_cfa 7, 8
	ret
	.cfi_endproc
.LFE5088:
	.section	.gcc_except_table
.LLSDA5088:
	.byte	0xff
	.byte	0xff
	.byte	0x1
	.uleb128 .LLSDACSE5088-.LLSDACSB5088
.LLSDACSB5088:
	.uleb128 .LEHB101-.LFB5088
	.uleb128 .LEHE101-.LEHB101
	.uleb128 .L302-.LFB5088
	.uleb128 0
	.uleb128 .LEHB102-.LFB5088
	.uleb128 .LEHE102-.LEHB102
	.uleb128 .L303-.LFB5088
	.uleb128 0
	.uleb128 .LEHB103-.LFB5088
	.uleb128 .LEHE103-.LEHB103
	.uleb128 .L304-.LFB5088
	.uleb128 0
	.uleb128 .LEHB104-.LFB5088
	.uleb128 .LEHE104-.LEHB104
	.uleb128 0
	.uleb128 0
.LLSDACSE5088:
	.section	.text._ZN6Wallet21kategory_expenses_colEv,"axG",@progbits,_ZN6Wallet21kategory_expenses_colEv,comdat
	.size	_ZN6Wallet21kategory_expenses_colEv, .-_ZN6Wallet21kategory_expenses_colEv
	.section	.rodata
	.align 8
.LC75:
	.string	"\n\320\221\320\276\320\273\321\214\321\210\320\265 \320\262\321\201\320\265\320\263\320\276 \320\264\320\265\320\275\320\265\320\263 \320\277\320\276\321\202\321\200\320\260\321\207\320\265\320\275\320\276 \320\275\320\260 \320\272\320\260\321\202\320\265\320\263\320\276\321\200\320\270\321\216: "
	.section	.text._ZN6Wallet23kategory_expenses_moneyEv,"axG",@progbits,_ZN6Wallet23kategory_expenses_moneyEv,comdat
	.align 2
	.weak	_ZN6Wallet23kategory_expenses_moneyEv
	.type	_ZN6Wallet23kategory_expenses_moneyEv, @function
_ZN6Wallet23kategory_expenses_moneyEv:
.LFB5089:
	.cfi_startproc
	.cfi_personality 0x9b,DW.ref.__gxx_personality_v0
	.cfi_lsda 0x1b,.LLSDA5089
	endbr64
	pushq	%rbp
	.cfi_def_cfa_offset 16
	.cfi_offset 6, -16
	movq	%rsp, %rbp
	.cfi_def_cfa_register 6
	pushq	%rbx
	subq	$1160, %rsp
	.cfi_offset 3, -24
	movq	%rdi, -1160(%rbp)
	movq	%fs:40, %rax
	movq	%rax, -24(%rbp)
	xorl	%eax, %eax
	leaq	-1104(%rbp), %rax
	movq	%rax, %rdi
	call	_ZNSt3mapINSt7__cxx1112basic_stringIcSt11char_traitsIcESaIcEEEiSt4lessIS5_ESaISt4pairIKS5_iEEEC1Ev
	leaq	-544(%rbp), %rax
	movq	%rax, %rdi
.LEHB105:
	call	_ZNSt14basic_ifstreamIcSt11char_traitsIcEEC1Ev@PLT
.LEHE105:
	leaq	-544(%rbp), %rax
	movl	$8, %edx
	leaq	.LC36(%rip), %rcx
	movq	%rcx, %rsi
	movq	%rax, %rdi
.LEHB106:
	call	_ZNSt14basic_ifstreamIcSt11char_traitsIcEE4openEPKcSt13_Ios_Openmode@PLT
.LEHE106:
	movl	$0, -1144(%rbp)
	movl	$0, -1140(%rbp)
	leaq	-1056(%rbp), %rax
	movq	%rax, %rdi
	call	_ZNSt7__cxx1112basic_stringIcSt11char_traitsIcESaIcEEC1Ev@PLT
	leaq	-1024(%rbp), %rax
	movq	%rax, %rdi
	call	_ZNSt7__cxx1112basic_stringIcSt11char_traitsIcESaIcEEC1Ev@PLT
	leaq	-992(%rbp), %rax
	movq	%rax, %rdi
	call	_ZNSt7__cxx1112basic_stringIcSt11char_traitsIcESaIcEEC1Ev@PLT
	movl	$0, -1152(%rbp)
	leaq	-960(%rbp), %rax
	movq	%rax, %rdi
	call	_ZNSt7__cxx1112basic_stringIcSt11char_traitsIcESaIcEEC1Ev@PLT
	jmp	.L307
.L308:
	addl	$1, -1144(%rbp)
	leaq	-960(%rbp), %rax
	leaq	.LC38(%rip), %rdx
	movq	%rdx, %rsi
	movq	%rax, %rdi
	call	_ZSteqIcSt11char_traitsIcESaIcEEbRKNSt7__cxx1112basic_stringIT_T0_T1_EEPKS5_
	testb	%al, %al
	je	.L307
	leaq	-992(%rbp), %rdx
	leaq	-544(%rbp), %rax
	movq	%rdx, %rsi
	movq	%rax, %rdi
.LEHB107:
	call	_ZStrsIcSt11char_traitsIcESaIcEERSt13basic_istreamIT_T0_ES7_RNSt7__cxx1112basic_stringIS4_S5_T1_EE@PLT
	leaq	-1024(%rbp), %rdx
	leaq	-544(%rbp), %rax
	movq	%rdx, %rsi
	movq	%rax, %rdi
	call	_ZStrsIcSt11char_traitsIcESaIcEERSt13basic_istreamIT_T0_ES7_RNSt7__cxx1112basic_stringIS4_S5_T1_EE@PLT
	leaq	-1024(%rbp), %rcx
	leaq	-928(%rbp), %rax
	movl	$8, %edx
	movq	%rcx, %rsi
	movq	%rax, %rdi
	call	_ZNSt7__cxx1119basic_istringstreamIcSt11char_traitsIcESaIcEEC1ERKNS_12basic_stringIcS2_S3_EESt13_Ios_Openmode@PLT
.LEHE107:
	leaq	-1152(%rbp), %rdx
	leaq	-928(%rbp), %rax
	movq	%rdx, %rsi
	movq	%rax, %rdi
.LEHB108:
	call	_ZStrsINSt7__cxx1119basic_istringstreamIcSt11char_traitsIcESaIcEEERiEOT_S8_OT0_
.LEHE108:
	leaq	-928(%rbp), %rax
	movq	%rax, %rdi
	call	_ZNSt7__cxx1119basic_istringstreamIcSt11char_traitsIcESaIcEED1Ev@PLT
	leaq	-992(%rbp), %rdx
	leaq	-1104(%rbp), %rax
	movq	%rdx, %rsi
	movq	%rax, %rdi
.LEHB109:
	call	_ZNSt3mapINSt7__cxx1112basic_stringIcSt11char_traitsIcESaIcEEEiSt4lessIS5_ESaISt4pairIKS5_iEEEixERS9_
	movl	(%rax), %ecx
	movl	-1152(%rbp), %edx
	addl	%ecx, %edx
	movl	%edx, (%rax)
	leaq	-992(%rbp), %rdx
	leaq	-1104(%rbp), %rax
	movq	%rdx, %rsi
	movq	%rax, %rdi
	call	_ZNSt3mapINSt7__cxx1112basic_stringIcSt11char_traitsIcESaIcEEEiSt4lessIS5_ESaISt4pairIKS5_iEEEixERS9_
	movl	(%rax), %eax
	cmpl	%eax, -1140(%rbp)
	setl	%al
	testb	%al, %al
	je	.L307
	leaq	-992(%rbp), %rdx
	leaq	-1104(%rbp), %rax
	movq	%rdx, %rsi
	movq	%rax, %rdi
	call	_ZNSt3mapINSt7__cxx1112basic_stringIcSt11char_traitsIcESaIcEEEiSt4lessIS5_ESaISt4pairIKS5_iEEEixERS9_
	movl	(%rax), %eax
	movl	%eax, -1140(%rbp)
	leaq	-992(%rbp), %rdx
	leaq	-1056(%rbp), %rax
	movq	%rdx, %rsi
	movq	%rax, %rdi
	call	_ZNSt7__cxx1112basic_stringIcSt11char_traitsIcESaIcEEaSERKS4_@PLT
.L307:
	leaq	-960(%rbp), %rdx
	leaq	-544(%rbp), %rax
	movq	%rdx, %rsi
	movq	%rax, %rdi
	call	_ZStrsIcSt11char_traitsIcESaIcEERSt13basic_istreamIT_T0_ES7_RNSt7__cxx1112basic_stringIS4_S5_T1_EE@PLT
	movq	(%rax), %rdx
	subq	$24, %rdx
	movq	(%rdx), %rdx
	addq	%rdx, %rax
	movq	%rax, %rdi
	call	_ZNKSt9basic_iosIcSt11char_traitsIcEEcvbEv@PLT
	testb	%al, %al
	jne	.L308
	leaq	.LC75(%rip), %rax
	movq	%rax, %rsi
	leaq	_ZSt4cout(%rip), %rax
	movq	%rax, %rdi
	call	_ZStlsISt11char_traitsIcEERSt13basic_ostreamIcT_ES5_PKc@PLT
	movq	%rax, %rdx
	leaq	-1056(%rbp), %rax
	movq	%rax, %rsi
	movq	%rdx, %rdi
	call	_ZStlsIcSt11char_traitsIcESaIcEERSt13basic_ostreamIT_T0_ES7_RKNSt7__cxx1112basic_stringIS4_S5_T1_EE@PLT
	movq	%rax, %rdx
	leaq	.LC40(%rip), %rax
	movq	%rax, %rsi
	movq	%rdx, %rdi
	call	_ZStlsISt11char_traitsIcEERSt13basic_ostreamIcT_ES5_PKc@PLT
	movq	%rax, %rdx
	movl	-1140(%rbp), %eax
	movl	%eax, %esi
	movq	%rdx, %rdi
	call	_ZNSolsEi@PLT
	movq	%rax, %rdx
	leaq	.LC43(%rip), %rax
	movq	%rax, %rsi
	movq	%rdx, %rdi
	call	_ZStlsISt11char_traitsIcEERSt13basic_ostreamIcT_ES5_PKc@PLT
	movq	_ZSt4endlIcSt11char_traitsIcEERSt13basic_ostreamIT_T0_ES6_@GOTPCREL(%rip), %rdx
	movq	%rdx, %rsi
	movq	%rax, %rdi
	call	_ZNSolsEPFRSoS_E@PLT
	leaq	-544(%rbp), %rax
	movq	%rax, %rdi
	call	_ZNSt14basic_ifstreamIcSt11char_traitsIcEE5closeEv@PLT
	leaq	.LC44(%rip), %rax
	movq	%rax, %rsi
	leaq	_ZSt4cout(%rip), %rax
	movq	%rax, %rdi
	call	_ZStlsISt11char_traitsIcEERSt13basic_ostreamIcT_ES5_PKc@PLT
	leaq	-1148(%rbp), %rax
	movq	%rax, %rsi
	leaq	_ZSt3cin(%rip), %rax
	movq	%rax, %rdi
	call	_ZNSirsERi@PLT
	movl	-1148(%rbp), %eax
	cmpl	$1, %eax
	jne	.L309
	leaq	-1104(%rbp), %rax
	movq	%rax, -1120(%rbp)
	movq	-1120(%rbp), %rax
	movq	%rax, %rdi
	call	_ZNSt3mapINSt7__cxx1112basic_stringIcSt11char_traitsIcESaIcEEEiSt4lessIS5_ESaISt4pairIKS5_iEEE5beginEv
	movq	%rax, -1136(%rbp)
	movq	-1120(%rbp), %rax
	movq	%rax, %rdi
	call	_ZNSt3mapINSt7__cxx1112basic_stringIcSt11char_traitsIcESaIcEEEiSt4lessIS5_ESaISt4pairIKS5_iEEE3endEv
	movq	%rax, -1128(%rbp)
	jmp	.L310
.L311:
	leaq	-1136(%rbp), %rax
	movq	%rax, %rdi
	call	_ZNKSt17_Rb_tree_iteratorISt4pairIKNSt7__cxx1112basic_stringIcSt11char_traitsIcESaIcEEEiEEdeEv
	movq	%rax, -1112(%rbp)
	movq	-1112(%rbp), %rax
	movq	%rax, %rsi
	leaq	_ZSt4cout(%rip), %rax
	movq	%rax, %rdi
	call	_ZStlsIcSt11char_traitsIcESaIcEERSt13basic_ostreamIT_T0_ES7_RKNSt7__cxx1112basic_stringIS4_S5_T1_EE@PLT
	movq	%rax, %rdx
	leaq	.LC40(%rip), %rax
	movq	%rax, %rsi
	movq	%rdx, %rdi
	call	_ZStlsISt11char_traitsIcEERSt13basic_ostreamIcT_ES5_PKc@PLT
	movq	%rax, %rdx
	movq	-1112(%rbp), %rax
	movl	32(%rax), %eax
	movl	%eax, %esi
	movq	%rdx, %rdi
	call	_ZNSolsEi@PLT
	movq	_ZSt4endlIcSt11char_traitsIcEERSt13basic_ostreamIT_T0_ES6_@GOTPCREL(%rip), %rdx
	movq	%rdx, %rsi
	movq	%rax, %rdi
	call	_ZNSolsEPFRSoS_E@PLT
	leaq	-1136(%rbp), %rax
	movq	%rax, %rdi
	call	_ZNSt17_Rb_tree_iteratorISt4pairIKNSt7__cxx1112basic_stringIcSt11char_traitsIcESaIcEEEiEEppEv
.L310:
	leaq	-1128(%rbp), %rdx
	leaq	-1136(%rbp), %rax
	movq	%rdx, %rsi
	movq	%rax, %rdi
	call	_ZStneRKSt17_Rb_tree_iteratorISt4pairIKNSt7__cxx1112basic_stringIcSt11char_traitsIcESaIcEEEiEESB_
	testb	%al, %al
	jne	.L311
	jmp	.L312
.L309:
	leaq	.LC45(%rip), %rax
	movq	%rax, %rsi
	leaq	_ZSt4cout(%rip), %rax
	movq	%rax, %rdi
	call	_ZStlsISt11char_traitsIcEERSt13basic_ostreamIcT_ES5_PKc@PLT
.LEHE109:
.L312:
	leaq	-960(%rbp), %rax
	movq	%rax, %rdi
	call	_ZNSt7__cxx1112basic_stringIcSt11char_traitsIcESaIcEED1Ev@PLT
	leaq	-992(%rbp), %rax
	movq	%rax, %rdi
	call	_ZNSt7__cxx1112basic_stringIcSt11char_traitsIcESaIcEED1Ev@PLT
	leaq	-1024(%rbp), %rax
	movq	%rax, %rdi
	call	_ZNSt7__cxx1112basic_stringIcSt11char_traitsIcESaIcEED1Ev@PLT
	leaq	-1056(%rbp), %rax
	movq	%rax, %rdi
	call	_ZNSt7__cxx1112basic_stringIcSt11char_traitsIcESaIcEED1Ev@PLT
	leaq	-544(%rbp), %rax
	movq	%rax, %rdi
	call	_ZNSt14basic_ifstreamIcSt11char_traitsIcEED1Ev@PLT
	leaq	-1104(%rbp), %rax
	movq	%rax, %rdi
	call	_ZNSt3mapINSt7__cxx1112basic_stringIcSt11char_traitsIcESaIcEEEiSt4lessIS5_ESaISt4pairIKS5_iEEED1Ev
	movq	-24(%rbp), %rax
	subq	%fs:40, %rax
	je	.L317
	jmp	.L322
.L321:
	endbr64
	movq	%rax, %rbx
	leaq	-928(%rbp), %rax
	movq	%rax, %rdi
	call	_ZNSt7__cxx1119basic_istringstreamIcSt11char_traitsIcESaIcEED1Ev@PLT
	jmp	.L314
.L320:
	endbr64
	movq	%rax, %rbx
.L314:
	leaq	-960(%rbp), %rax
	movq	%rax, %rdi
	call	_ZNSt7__cxx1112basic_stringIcSt11char_traitsIcESaIcEED1Ev@PLT
	leaq	-992(%rbp), %rax
	movq	%rax, %rdi
	call	_ZNSt7__cxx1112basic_stringIcSt11char_traitsIcESaIcEED1Ev@PLT
	leaq	-1024(%rbp), %rax
	movq	%rax, %rdi
	call	_ZNSt7__cxx1112basic_stringIcSt11char_traitsIcESaIcEED1Ev@PLT
	leaq	-1056(%rbp), %rax
	movq	%rax, %rdi
	call	_ZNSt7__cxx1112basic_stringIcSt11char_traitsIcESaIcEED1Ev@PLT
	jmp	.L315
.L319:
	endbr64
	movq	%rax, %rbx
.L315:
	leaq	-544(%rbp), %rax
	movq	%rax, %rdi
	call	_ZNSt14basic_ifstreamIcSt11char_traitsIcEED1Ev@PLT
	jmp	.L316
.L318:
	endbr64
	movq	%rax, %rbx
.L316:
	leaq	-1104(%rbp), %rax
	movq	%rax, %rdi
	call	_ZNSt3mapINSt7__cxx1112basic_stringIcSt11char_traitsIcESaIcEEEiSt4lessIS5_ESaISt4pairIKS5_iEEED1Ev
	movq	%rbx, %rax
	movq	%rax, %rdi
.LEHB110:
	call	_Unwind_Resume@PLT
.LEHE110:
.L322:
	call	__stack_chk_fail@PLT
.L317:
	movq	-8(%rbp), %rbx
	leave
	.cfi_def_cfa 7, 8
	ret
	.cfi_endproc
.LFE5089:
	.section	.gcc_except_table
.LLSDA5089:
	.byte	0xff
	.byte	0xff
	.byte	0x1
	.uleb128 .LLSDACSE5089-.LLSDACSB5089
.LLSDACSB5089:
	.uleb128 .LEHB105-.LFB5089
	.uleb128 .LEHE105-.LEHB105
	.uleb128 .L318-.LFB5089
	.uleb128 0
	.uleb128 .LEHB106-.LFB5089
	.uleb128 .LEHE106-.LEHB106
	.uleb128 .L319-.LFB5089
	.uleb128 0
	.uleb128 .LEHB107-.LFB5089
	.uleb128 .LEHE107-.LEHB107
	.uleb128 .L320-.LFB5089
	.uleb128 0
	.uleb128 .LEHB108-.LFB5089
	.uleb128 .LEHE108-.LEHB108
	.uleb128 .L321-.LFB5089
	.uleb128 0
	.uleb128 .LEHB109-.LFB5089
	.uleb128 .LEHE109-.LEHB109
	.uleb128 .L320-.LFB5089
	.uleb128 0
	.uleb128 .LEHB110-.LFB5089
	.uleb128 .LEHE110-.LEHB110
	.uleb128 0
	.uleb128 0
.LLSDACSE5089:
	.section	.text._ZN6Wallet23kategory_expenses_moneyEv,"axG",@progbits,_ZN6Wallet23kategory_expenses_moneyEv,comdat
	.size	_ZN6Wallet23kategory_expenses_moneyEv, .-_ZN6Wallet23kategory_expenses_moneyEv
	.section	.text._ZN6WalletD2Ev,"axG",@progbits,_ZN6WalletD5Ev,comdat
	.align 2
	.weak	_ZN6WalletD2Ev
	.type	_ZN6WalletD2Ev, @function
_ZN6WalletD2Ev:
.LFB5092:
	.cfi_startproc
	endbr64
	pushq	%rbp
	.cfi_def_cfa_offset 16
	.cfi_offset 6, -16
	movq	%rsp, %rbp
	.cfi_def_cfa_register 6
	subq	$16, %rsp
	movq	%rdi, -8(%rbp)
	movq	-8(%rbp), %rax
	movq	%rax, %rdi
	call	_ZN11Kredit_CardD2Ev
	nop
	leave
	.cfi_def_cfa 7, 8
	ret
	.cfi_endproc
.LFE5092:
	.size	_ZN6WalletD2Ev, .-_ZN6WalletD2Ev
	.weak	_ZN6WalletD1Ev
	.set	_ZN6WalletD1Ev,_ZN6WalletD2Ev
	.section	.text._ZN6PersonC2Ev,"axG",@progbits,_ZN6PersonC5Ev,comdat
	.align 2
	.weak	_ZN6PersonC2Ev
	.type	_ZN6PersonC2Ev, @function
_ZN6PersonC2Ev:
.LFB5094:
	.cfi_startproc
	endbr64
	pushq	%rbp
	.cfi_def_cfa_offset 16
	.cfi_offset 6, -16
	movq	%rsp, %rbp
	.cfi_def_cfa_register 6
	subq	$16, %rsp
	movq	%rdi, -8(%rbp)
	movq	-8(%rbp), %rax
	movq	%rax, %rdi
	call	_ZN6WalletC2Ev
	movq	-8(%rbp), %rax
	addq	$196, %rax
	movb	$0, (%rax)
	movq	-8(%rbp), %rax
	addq	$226, %rax
	movb	$0, (%rax)
	nop
	leave
	.cfi_def_cfa 7, 8
	ret
	.cfi_endproc
.LFE5094:
	.size	_ZN6PersonC2Ev, .-_ZN6PersonC2Ev
	.weak	_ZN6PersonC1Ev
	.set	_ZN6PersonC1Ev,_ZN6PersonC2Ev
	.section	.text._ZN6PersonC2ENSt7__cxx1112basic_stringIcSt11char_traitsIcESaIcEEES5_,"axG",@progbits,_ZN6PersonC5ENSt7__cxx1112basic_stringIcSt11char_traitsIcESaIcEEES5_,comdat
	.align 2
	.weak	_ZN6PersonC2ENSt7__cxx1112basic_stringIcSt11char_traitsIcESaIcEEES5_
	.type	_ZN6PersonC2ENSt7__cxx1112basic_stringIcSt11char_traitsIcESaIcEEES5_, @function
_ZN6PersonC2ENSt7__cxx1112basic_stringIcSt11char_traitsIcESaIcEEES5_:
.LFB5097:
	.cfi_startproc
	endbr64
	pushq	%rbp
	.cfi_def_cfa_offset 16
	.cfi_offset 6, -16
	movq	%rsp, %rbp
	.cfi_def_cfa_register 6
	subq	$32, %rsp
	movq	%rdi, -8(%rbp)
	movq	%rsi, -16(%rbp)
	movq	%rdx, -24(%rbp)
	movq	-8(%rbp), %rax
	movq	%rax, %rdi
	call	_ZN6WalletC2Ev
	movq	-16(%rbp), %rax
	movq	%rax, %rdi
	call	_ZNKSt7__cxx1112basic_stringIcSt11char_traitsIcESaIcEE5c_strEv@PLT
	movq	%rax, %rdx
	movq	-8(%rbp), %rax
	addq	$196, %rax
	movq	%rdx, %rsi
	movq	%rax, %rdi
	call	strcpy@PLT
	movq	-24(%rbp), %rax
	movq	%rax, %rdi
	call	_ZNKSt7__cxx1112basic_stringIcSt11char_traitsIcESaIcEE5c_strEv@PLT
	movq	%rax, %rdx
	movq	-8(%rbp), %rax
	addq	$226, %rax
	movq	%rdx, %rsi
	movq	%rax, %rdi
	call	strcpy@PLT
	nop
	leave
	.cfi_def_cfa 7, 8
	ret
	.cfi_endproc
.LFE5097:
	.size	_ZN6PersonC2ENSt7__cxx1112basic_stringIcSt11char_traitsIcESaIcEEES5_, .-_ZN6PersonC2ENSt7__cxx1112basic_stringIcSt11char_traitsIcESaIcEEES5_
	.weak	_ZN6PersonC1ENSt7__cxx1112basic_stringIcSt11char_traitsIcESaIcEEES5_
	.set	_ZN6PersonC1ENSt7__cxx1112basic_stringIcSt11char_traitsIcESaIcEEES5_,_ZN6PersonC2ENSt7__cxx1112basic_stringIcSt11char_traitsIcESaIcEEES5_
	.section	.rodata
.LC76:
	.string	"regist.txt"
	.section	.text._ZN6Person18check_password_logENSt7__cxx1112basic_stringIcSt11char_traitsIcESaIcEEES5_,"axG",@progbits,_ZN6Person18check_password_logENSt7__cxx1112basic_stringIcSt11char_traitsIcESaIcEEES5_,comdat
	.align 2
	.weak	_ZN6Person18check_password_logENSt7__cxx1112basic_stringIcSt11char_traitsIcESaIcEEES5_
	.type	_ZN6Person18check_password_logENSt7__cxx1112basic_stringIcSt11char_traitsIcESaIcEEES5_, @function
_ZN6Person18check_password_logENSt7__cxx1112basic_stringIcSt11char_traitsIcESaIcEEES5_:
.LFB5099:
	.cfi_startproc
	.cfi_personality 0x9b,DW.ref.__gxx_personality_v0
	.cfi_lsda 0x1b,.LLSDA5099
	endbr64
	pushq	%rbp
	.cfi_def_cfa_offset 16
	.cfi_offset 6, -16
	movq	%rsp, %rbp
	.cfi_def_cfa_register 6
	pushq	%rbx
	subq	$760, %rsp
	.cfi_offset 3, -24
	movq	%rdi, -744(%rbp)
	movq	%rsi, -752(%rbp)
	movq	%rdx, -760(%rbp)
	movq	%fs:40, %rax
	movq	%rax, -24(%rbp)
	xorl	%eax, %eax
	leaq	-672(%rbp), %rax
	movq	%rax, %rdi
	call	_ZNSt7__cxx1112basic_stringIcSt11char_traitsIcESaIcEEC1Ev@PLT
	leaq	-640(%rbp), %rax
	movq	%rax, %rdi
	call	_ZNSt7__cxx1112basic_stringIcSt11char_traitsIcESaIcEEC1Ev@PLT
	movl	$0, -720(%rbp)
	movl	$0, -716(%rbp)
	leaq	-544(%rbp), %rax
	movq	%rax, %rdi
.LEHB111:
	call	_ZNSt14basic_ifstreamIcSt11char_traitsIcEEC1Ev@PLT
.LEHE111:
	leaq	-544(%rbp), %rax
	movl	$8, %edx
	leaq	.LC76(%rip), %rcx
	movq	%rcx, %rsi
	movq	%rax, %rdi
.LEHB112:
	call	_ZNSt14basic_ifstreamIcSt11char_traitsIcEE4openEPKcSt13_Ios_Openmode@PLT
	leaq	-544(%rbp), %rax
	movq	%rax, %rdi
	call	_ZNSt14basic_ifstreamIcSt11char_traitsIcEE7is_openEv@PLT
	testb	%al, %al
	je	.L327
	jmp	.L328
.L329:
	leaq	-672(%rbp), %rdx
	leaq	-544(%rbp), %rax
	movq	%rdx, %rsi
	movq	%rax, %rdi
	call	_ZStrsIcSt11char_traitsIcESaIcEERSt13basic_istreamIT_T0_ES7_RNSt7__cxx1112basic_stringIS4_S5_T1_EE@PLT
	leaq	-640(%rbp), %rdx
	leaq	-544(%rbp), %rax
	movq	%rdx, %rsi
	movq	%rax, %rdi
	call	_ZStrsIcSt11char_traitsIcESaIcEERSt13basic_istreamIT_T0_ES7_RNSt7__cxx1112basic_stringIS4_S5_T1_EE@PLT
.L328:
	leaq	-544(%rbp), %rax
	addq	$256, %rax
	movq	%rax, %rdi
	call	_ZNKSt9basic_iosIcSt11char_traitsIcEE3eofEv@PLT
.LEHE112:
	xorl	$1, %eax
	testb	%al, %al
	jne	.L329
	movq	-752(%rbp), %rax
	movq	%rax, %rdi
	call	_ZNKSt7__cxx1112basic_stringIcSt11char_traitsIcESaIcEE5c_strEv@PLT
	movq	%rax, %rbx
	leaq	-672(%rbp), %rax
	movq	%rax, %rdi
	call	_ZNKSt7__cxx1112basic_stringIcSt11char_traitsIcESaIcEE5c_strEv@PLT
	movq	%rbx, %rsi
	movq	%rax, %rdi
	call	strcmp@PLT
	testl	%eax, %eax
	sete	%al
	testb	%al, %al
	je	.L330
	addl	$1, -720(%rbp)
	leaq	-721(%rbp), %rax
	movq	%rax, %rdi
	call	_ZNSaIcEC1Ev@PLT
	leaq	-640(%rbp), %rax
	movq	%rax, %rdi
	call	_ZNSt7__cxx1112basic_stringIcSt11char_traitsIcESaIcEE3endEv@PLT
	movq	%rax, %rbx
	leaq	-640(%rbp), %rax
	movq	%rax, %rdi
	call	_ZNSt7__cxx1112basic_stringIcSt11char_traitsIcESaIcEE5beginEv@PLT
	movq	%rax, %rsi
	leaq	-721(%rbp), %rdx
	leaq	-704(%rbp), %rax
	movq	%rdx, %rcx
	movq	%rbx, %rdx
	movq	%rax, %rdi
.LEHB113:
	call	_ZNSt6vectorIcSaIcEEC1IN9__gnu_cxx17__normal_iteratorIPcNSt7__cxx1112basic_stringIcSt11char_traitsIcES0_EEEEvEET_SC_RKS0_
.LEHE113:
	leaq	-721(%rbp), %rax
	movq	%rax, %rdi
	call	_ZNSaIcED1Ev@PLT
	leaq	-721(%rbp), %rax
	movq	%rax, %rdi
	call	_ZNSaIcEC1Ev@PLT
	leaq	-721(%rbp), %rdx
	leaq	-608(%rbp), %rax
	leaq	.LC0(%rip), %rcx
	movq	%rcx, %rsi
	movq	%rax, %rdi
.LEHB114:
	call	_ZNSt7__cxx1112basic_stringIcSt11char_traitsIcESaIcEEC1IS3_EEPKcRKS3_
.LEHE114:
	leaq	-721(%rbp), %rax
	movq	%rax, %rdi
	call	_ZNSaIcED1Ev@PLT
	movl	$0, -712(%rbp)
	jmp	.L331
.L336:
	movl	$0, -708(%rbp)
	jmp	.L332
.L335:
	movl	-712(%rbp), %eax
	movslq	%eax, %rdx
	leaq	-704(%rbp), %rax
	movq	%rdx, %rsi
	movq	%rax, %rdi
	call	_ZNSt6vectorIcSaIcEEixEm
	movzbl	(%rax), %ebx
	movl	-708(%rbp), %eax
	movslq	%eax, %rdx
	leaq	-608(%rbp), %rax
	movq	%rdx, %rsi
	movq	%rax, %rdi
.LEHB115:
	call	_ZNSt7__cxx1112basic_stringIcSt11char_traitsIcESaIcEEixEm@PLT
	movzbl	(%rax), %eax
	cmpb	%al, %bl
	sete	%al
	testb	%al, %al
	je	.L333
	movl	-708(%rbp), %eax
	leal	-3(%rax), %edx
	movslq	%edx, %rax
	imulq	$1321528399, %rax, %rax
	shrq	$32, %rax
	sarl	$3, %eax
	movl	%edx, %ecx
	sarl	$31, %ecx
	subl	%ecx, %eax
	imull	$26, %eax, %ecx
	movl	%edx, %eax
	subl	%ecx, %eax
	movslq	%eax, %rdx
	leaq	-608(%rbp), %rax
	movq	%rdx, %rsi
	movq	%rax, %rdi
	call	_ZNSt7__cxx1112basic_stringIcSt11char_traitsIcESaIcEEixEm@PLT
.LEHE115:
	movzbl	(%rax), %ebx
	movl	-712(%rbp), %eax
	movslq	%eax, %rdx
	leaq	-704(%rbp), %rax
	movq	%rdx, %rsi
	movq	%rax, %rdi
	call	_ZNSt6vectorIcSaIcEEixEm
	movb	%bl, (%rax)
	jmp	.L334
.L333:
	addl	$1, -708(%rbp)
.L332:
	leaq	-608(%rbp), %rax
	movq	%rax, %rdi
	call	_ZNKSt7__cxx1112basic_stringIcSt11char_traitsIcESaIcEE6lengthEv@PLT
	cmpl	%eax, -708(%rbp)
	setl	%al
	testb	%al, %al
	jne	.L335
.L334:
	addl	$1, -712(%rbp)
.L331:
	leaq	-640(%rbp), %rax
	movq	%rax, %rdi
	call	_ZNKSt7__cxx1112basic_stringIcSt11char_traitsIcESaIcEE6lengthEv@PLT
	cmpl	%eax, -712(%rbp)
	setl	%al
	testb	%al, %al
	jne	.L336
	leaq	-721(%rbp), %rax
	movq	%rax, %rdi
	call	_ZNSaIcEC1Ev@PLT
	leaq	-704(%rbp), %rax
	movq	%rax, %rdi
	call	_ZNSt6vectorIcSaIcEE3endEv
	movq	%rax, %rbx
	leaq	-704(%rbp), %rax
	movq	%rax, %rdi
	call	_ZNSt6vectorIcSaIcEE5beginEv
	movq	%rax, %rsi
	leaq	-721(%rbp), %rdx
	leaq	-576(%rbp), %rax
	movq	%rdx, %rcx
	movq	%rbx, %rdx
	movq	%rax, %rdi
.LEHB116:
	call	_ZNSt7__cxx1112basic_stringIcSt11char_traitsIcESaIcEEC1IN9__gnu_cxx17__normal_iteratorIPcSt6vectorIcS3_EEEvEET_SC_RKS3_
.LEHE116:
	leaq	-721(%rbp), %rax
	movq	%rax, %rdi
	call	_ZNSaIcED1Ev@PLT
	movq	-760(%rbp), %rax
	movq	%rax, %rdi
	call	_ZNKSt7__cxx1112basic_stringIcSt11char_traitsIcESaIcEE5c_strEv@PLT
	movq	%rax, %rbx
	leaq	-576(%rbp), %rax
	movq	%rax, %rdi
	call	_ZNKSt7__cxx1112basic_stringIcSt11char_traitsIcESaIcEE5c_strEv@PLT
	movq	%rbx, %rsi
	movq	%rax, %rdi
	call	strcmp@PLT
	testl	%eax, %eax
	sete	%al
	testb	%al, %al
	je	.L337
	addl	$1, -716(%rbp)
.L337:
	leaq	-576(%rbp), %rax
	movq	%rax, %rdi
	call	_ZNSt7__cxx1112basic_stringIcSt11char_traitsIcESaIcEED1Ev@PLT
	leaq	-608(%rbp), %rax
	movq	%rax, %rdi
	call	_ZNSt7__cxx1112basic_stringIcSt11char_traitsIcESaIcEED1Ev@PLT
	leaq	-704(%rbp), %rax
	movq	%rax, %rdi
	call	_ZNSt6vectorIcSaIcEED1Ev
.L330:
	cmpl	$0, -720(%rbp)
	jle	.L338
	cmpl	$0, -716(%rbp)
	jle	.L338
	movl	$1, %ebx
	jmp	.L339
.L338:
	cmpl	$0, -720(%rbp)
	jle	.L340
	movl	$0, -716(%rbp)
	cmpl	$0, -716(%rbp)
	je	.L341
.L340:
	movl	$1, %eax
	jmp	.L342
.L341:
	movl	$0, %eax
.L342:
	testb	%al, %al
	je	.L327
	movl	$0, %ebx
	jmp	.L339
.L327:
	movl	$0, %ebx
.L339:
	leaq	-544(%rbp), %rax
	movq	%rax, %rdi
	call	_ZNSt14basic_ifstreamIcSt11char_traitsIcEED1Ev@PLT
	leaq	-640(%rbp), %rax
	movq	%rax, %rdi
	call	_ZNSt7__cxx1112basic_stringIcSt11char_traitsIcESaIcEED1Ev@PLT
	leaq	-672(%rbp), %rax
	movq	%rax, %rdi
	call	_ZNSt7__cxx1112basic_stringIcSt11char_traitsIcESaIcEED1Ev@PLT
	movl	%ebx, %eax
	movq	-24(%rbp), %rdx
	subq	%fs:40, %rdx
	je	.L351
	jmp	.L358
.L354:
	endbr64
	movq	%rax, %rbx
	leaq	-721(%rbp), %rax
	movq	%rax, %rdi
	call	_ZNSaIcED1Ev@PLT
	jmp	.L345
.L355:
	endbr64
	movq	%rax, %rbx
	leaq	-721(%rbp), %rax
	movq	%rax, %rdi
	call	_ZNSaIcED1Ev@PLT
	jmp	.L347
.L357:
	endbr64
	movq	%rax, %rbx
	leaq	-721(%rbp), %rax
	movq	%rax, %rdi
	call	_ZNSaIcED1Ev@PLT
	jmp	.L349
.L356:
	endbr64
	movq	%rax, %rbx
.L349:
	leaq	-608(%rbp), %rax
	movq	%rax, %rdi
	call	_ZNSt7__cxx1112basic_stringIcSt11char_traitsIcESaIcEED1Ev@PLT
.L347:
	leaq	-704(%rbp), %rax
	movq	%rax, %rdi
	call	_ZNSt6vectorIcSaIcEED1Ev
	jmp	.L345
.L353:
	endbr64
	movq	%rax, %rbx
.L345:
	leaq	-544(%rbp), %rax
	movq	%rax, %rdi
	call	_ZNSt14basic_ifstreamIcSt11char_traitsIcEED1Ev@PLT
	jmp	.L350
.L352:
	endbr64
	movq	%rax, %rbx
.L350:
	leaq	-640(%rbp), %rax
	movq	%rax, %rdi
	call	_ZNSt7__cxx1112basic_stringIcSt11char_traitsIcESaIcEED1Ev@PLT
	leaq	-672(%rbp), %rax
	movq	%rax, %rdi
	call	_ZNSt7__cxx1112basic_stringIcSt11char_traitsIcESaIcEED1Ev@PLT
	movq	%rbx, %rax
	movq	%rax, %rdi
.LEHB117:
	call	_Unwind_Resume@PLT
.LEHE117:
.L358:
	call	__stack_chk_fail@PLT
.L351:
	movq	-8(%rbp), %rbx
	leave
	.cfi_def_cfa 7, 8
	ret
	.cfi_endproc
.LFE5099:
	.section	.gcc_except_table
.LLSDA5099:
	.byte	0xff
	.byte	0xff
	.byte	0x1
	.uleb128 .LLSDACSE5099-.LLSDACSB5099
.LLSDACSB5099:
	.uleb128 .LEHB111-.LFB5099
	.uleb128 .LEHE111-.LEHB111
	.uleb128 .L352-.LFB5099
	.uleb128 0
	.uleb128 .LEHB112-.LFB5099
	.uleb128 .LEHE112-.LEHB112
	.uleb128 .L353-.LFB5099
	.uleb128 0
	.uleb128 .LEHB113-.LFB5099
	.uleb128 .LEHE113-.LEHB113
	.uleb128 .L354-.LFB5099
	.uleb128 0
	.uleb128 .LEHB114-.LFB5099
	.uleb128 .LEHE114-.LEHB114
	.uleb128 .L355-.LFB5099
	.uleb128 0
	.uleb128 .LEHB115-.LFB5099
	.uleb128 .LEHE115-.LEHB115
	.uleb128 .L356-.LFB5099
	.uleb128 0
	.uleb128 .LEHB116-.LFB5099
	.uleb128 .LEHE116-.LEHB116
	.uleb128 .L357-.LFB5099
	.uleb128 0
	.uleb128 .LEHB117-.LFB5099
	.uleb128 .LEHE117-.LEHB117
	.uleb128 0
	.uleb128 0
.LLSDACSE5099:
	.section	.text._ZN6Person18check_password_logENSt7__cxx1112basic_stringIcSt11char_traitsIcESaIcEEES5_,"axG",@progbits,_ZN6Person18check_password_logENSt7__cxx1112basic_stringIcSt11char_traitsIcESaIcEEES5_,comdat
	.size	_ZN6Person18check_password_logENSt7__cxx1112basic_stringIcSt11char_traitsIcESaIcEEES5_, .-_ZN6Person18check_password_logENSt7__cxx1112basic_stringIcSt11char_traitsIcESaIcEEES5_
	.section	.rodata
	.align 8
.LC77:
	.string	"\n\320\247\321\202\320\276 \321\205\320\276\321\202\320\270\321\202\320\265 \321\201\320\264\320\265\320\273\320\260\321\202\321\214 ?\n"
	.align 8
.LC78:
	.string	"1. \320\227\320\260\321\200\320\265\320\263\320\270\321\201\321\202\321\200\320\270\321\200\320\276\320\262\320\260\321\202\321\214 \320\272\320\276\321\210\320\265\320\273\321\221\320\272\n"
	.align 8
.LC79:
	.string	"2. \320\227\320\260\321\200\320\265\320\263\320\270\321\201\321\202\321\200\320\270\321\200\320\276\320\262\320\260\321\202\321\214 \320\272\320\260\321\200\321\202\321\203\n"
	.align 8
.LC80:
	.string	"3. \320\222\320\276\320\271\321\202\320\270 \320\262 \320\272\320\276\321\210\320\265\320\273\321\221\320\272 \320\270\320\273\320\270 \320\272\320\260\321\200\321\202\321\203\n"
.LC81:
	.string	"4. \320\232\320\276\321\210\320\265\320\273\320\265\320\272 \n"
.LC82:
	.string	"5. \320\232\320\260\321\200\321\202\320\260\n"
.LC83:
	.string	"6 - RESET ALL\n"
	.text
	.globl	_Z4menuv
	.type	_Z4menuv, @function
_Z4menuv:
.LFB5100:
	.cfi_startproc
	endbr64
	pushq	%rbp
	.cfi_def_cfa_offset 16
	.cfi_offset 6, -16
	movq	%rsp, %rbp
	.cfi_def_cfa_register 6
	subq	$16, %rsp
	movq	%fs:40, %rax
	movq	%rax, -8(%rbp)
	xorl	%eax, %eax
	leaq	.LC77(%rip), %rax
	movq	%rax, %rsi
	leaq	_ZSt4cout(%rip), %rax
	movq	%rax, %rdi
	call	_ZStlsISt11char_traitsIcEERSt13basic_ostreamIcT_ES5_PKc@PLT
	leaq	.LC78(%rip), %rax
	movq	%rax, %rsi
	leaq	_ZSt4cout(%rip), %rax
	movq	%rax, %rdi
	call	_ZStlsISt11char_traitsIcEERSt13basic_ostreamIcT_ES5_PKc@PLT
	leaq	.LC79(%rip), %rax
	movq	%rax, %rsi
	leaq	_ZSt4cout(%rip), %rax
	movq	%rax, %rdi
	call	_ZStlsISt11char_traitsIcEERSt13basic_ostreamIcT_ES5_PKc@PLT
	leaq	.LC80(%rip), %rax
	movq	%rax, %rsi
	leaq	_ZSt4cout(%rip), %rax
	movq	%rax, %rdi
	call	_ZStlsISt11char_traitsIcEERSt13basic_ostreamIcT_ES5_PKc@PLT
	leaq	.LC81(%rip), %rax
	movq	%rax, %rsi
	leaq	_ZSt4cout(%rip), %rax
	movq	%rax, %rdi
	call	_ZStlsISt11char_traitsIcEERSt13basic_ostreamIcT_ES5_PKc@PLT
	leaq	.LC82(%rip), %rax
	movq	%rax, %rsi
	leaq	_ZSt4cout(%rip), %rax
	movq	%rax, %rdi
	call	_ZStlsISt11char_traitsIcEERSt13basic_ostreamIcT_ES5_PKc@PLT
	leaq	.LC83(%rip), %rax
	movq	%rax, %rsi
	leaq	_ZSt4cout(%rip), %rax
	movq	%rax, %rdi
	call	_ZStlsISt11char_traitsIcEERSt13basic_ostreamIcT_ES5_PKc@PLT
	leaq	-12(%rbp), %rax
	movq	%rax, %rsi
	leaq	_ZSt3cin(%rip), %rax
	movq	%rax, %rdi
	call	_ZNSirsERi@PLT
	movl	-12(%rbp), %eax
	movq	-8(%rbp), %rdx
	subq	%fs:40, %rdx
	je	.L361
	call	__stack_chk_fail@PLT
.L361:
	leave
	.cfi_def_cfa 7, 8
	ret
	.cfi_endproc
.LFE5100:
	.size	_Z4menuv, .-_Z4menuv
	.globl	_Z5resetv
	.type	_Z5resetv, @function
_Z5resetv:
.LFB5101:
	.cfi_startproc
	.cfi_personality 0x9b,DW.ref.__gxx_personality_v0
	.cfi_lsda 0x1b,.LLSDA5101
	endbr64
	pushq	%rbp
	.cfi_def_cfa_offset 16
	.cfi_offset 6, -16
	movq	%rsp, %rbp
	.cfi_def_cfa_register 6
	pushq	%rbx
	subq	$4096, %rsp
	orq	$0, (%rsp)
	subq	$24, %rsp
	.cfi_offset 3, -24
	movq	%fs:40, %rax
	movq	%rax, -24(%rbp)
	xorl	%eax, %eax
	leaq	-4128(%rbp), %rax
	movq	%rax, %rdi
.LEHB118:
	call	_ZNSt14basic_ofstreamIcSt11char_traitsIcEEC1Ev@PLT
.LEHE118:
	leaq	-4128(%rbp), %rax
	movl	$16, %edx
	leaq	.LC76(%rip), %rcx
	movq	%rcx, %rsi
	movq	%rax, %rdi
.LEHB119:
	call	_ZNSt14basic_ofstreamIcSt11char_traitsIcEE4openEPKcSt13_Ios_Openmode@PLT
	leaq	-4128(%rbp), %rax
	leaq	.LC1(%rip), %rdx
	movq	%rdx, %rsi
	movq	%rax, %rdi
	call	_ZStlsISt11char_traitsIcEERSt13basic_ostreamIcT_ES5_PKc@PLT
	leaq	-4128(%rbp), %rax
	movq	%rax, %rdi
	call	_ZNSt14basic_ofstreamIcSt11char_traitsIcEE5closeEv@PLT
	leaq	-3616(%rbp), %rax
	movq	%rax, %rdi
	call	_ZNSt14basic_ofstreamIcSt11char_traitsIcEEC1Ev@PLT
.LEHE119:
	leaq	-3616(%rbp), %rax
	movl	$16, %edx
	leaq	.LC15(%rip), %rcx
	movq	%rcx, %rsi
	movq	%rax, %rdi
.LEHB120:
	call	_ZNSt14basic_ofstreamIcSt11char_traitsIcEE4openEPKcSt13_Ios_Openmode@PLT
	leaq	-3616(%rbp), %rax
	leaq	.LC1(%rip), %rdx
	movq	%rdx, %rsi
	movq	%rax, %rdi
	call	_ZStlsISt11char_traitsIcEERSt13basic_ostreamIcT_ES5_PKc@PLT
	leaq	-3616(%rbp), %rax
	movq	%rax, %rdi
	call	_ZNSt14basic_ofstreamIcSt11char_traitsIcEE5closeEv@PLT
	leaq	-3104(%rbp), %rax
	movq	%rax, %rdi
	call	_ZNSt14basic_ofstreamIcSt11char_traitsIcEEC1Ev@PLT
.LEHE120:
	leaq	-3104(%rbp), %rax
	movl	$16, %edx
	leaq	.LC34(%rip), %rcx
	movq	%rcx, %rsi
	movq	%rax, %rdi
.LEHB121:
	call	_ZNSt14basic_ofstreamIcSt11char_traitsIcEE4openEPKcSt13_Ios_Openmode@PLT
	leaq	-3104(%rbp), %rax
	leaq	.LC1(%rip), %rdx
	movq	%rdx, %rsi
	movq	%rax, %rdi
	call	_ZStlsISt11char_traitsIcEERSt13basic_ostreamIcT_ES5_PKc@PLT
	leaq	-3104(%rbp), %rax
	movq	%rax, %rdi
	call	_ZNSt14basic_ofstreamIcSt11char_traitsIcEE5closeEv@PLT
	leaq	-2592(%rbp), %rax
	movq	%rax, %rdi
	call	_ZNSt14basic_ofstreamIcSt11char_traitsIcEEC1Ev@PLT
.LEHE121:
	leaq	-2592(%rbp), %rax
	movl	$16, %edx
	leaq	.LC36(%rip), %rcx
	movq	%rcx, %rsi
	movq	%rax, %rdi
.LEHB122:
	call	_ZNSt14basic_ofstreamIcSt11char_traitsIcEE4openEPKcSt13_Ios_Openmode@PLT
	leaq	-2592(%rbp), %rax
	leaq	.LC1(%rip), %rdx
	movq	%rdx, %rsi
	movq	%rax, %rdi
	call	_ZStlsISt11char_traitsIcEERSt13basic_ostreamIcT_ES5_PKc@PLT
	leaq	-2592(%rbp), %rax
	movq	%rax, %rdi
	call	_ZNSt14basic_ofstreamIcSt11char_traitsIcEE5closeEv@PLT
	leaq	-2080(%rbp), %rax
	movq	%rax, %rdi
	call	_ZNSt14basic_ofstreamIcSt11char_traitsIcEEC1Ev@PLT
.LEHE122:
	leaq	-2080(%rbp), %rax
	movl	$16, %edx
	leaq	.LC22(%rip), %rcx
	movq	%rcx, %rsi
	movq	%rax, %rdi
.LEHB123:
	call	_ZNSt14basic_ofstreamIcSt11char_traitsIcEE4openEPKcSt13_Ios_Openmode@PLT
	leaq	-2080(%rbp), %rax
	leaq	.LC1(%rip), %rdx
	movq	%rdx, %rsi
	movq	%rax, %rdi
	call	_ZStlsISt11char_traitsIcEERSt13basic_ostreamIcT_ES5_PKc@PLT
	leaq	-2080(%rbp), %rax
	movq	%rax, %rdi
	call	_ZNSt14basic_ofstreamIcSt11char_traitsIcEE5closeEv@PLT
	leaq	-1568(%rbp), %rax
	movq	%rax, %rdi
	call	_ZNSt14basic_ofstreamIcSt11char_traitsIcEEC1Ev@PLT
.LEHE123:
	leaq	-1568(%rbp), %rax
	movl	$16, %edx
	leaq	.LC46(%rip), %rcx
	movq	%rcx, %rsi
	movq	%rax, %rdi
.LEHB124:
	call	_ZNSt14basic_ofstreamIcSt11char_traitsIcEE4openEPKcSt13_Ios_Openmode@PLT
	leaq	-1568(%rbp), %rax
	leaq	.LC1(%rip), %rdx
	movq	%rdx, %rsi
	movq	%rax, %rdi
	call	_ZStlsISt11char_traitsIcEERSt13basic_ostreamIcT_ES5_PKc@PLT
	leaq	-1568(%rbp), %rax
	movq	%rax, %rdi
	call	_ZNSt14basic_ofstreamIcSt11char_traitsIcEE5closeEv@PLT
	leaq	-1056(%rbp), %rax
	movq	%rax, %rdi
	call	_ZNSt14basic_ofstreamIcSt11char_traitsIcEEC1Ev@PLT
.LEHE124:
	leaq	-1056(%rbp), %rax
	movl	$16, %edx
	leaq	.LC50(%rip), %rcx
	movq	%rcx, %rsi
	movq	%rax, %rdi
.LEHB125:
	call	_ZNSt14basic_ofstreamIcSt11char_traitsIcEE4openEPKcSt13_Ios_Openmode@PLT
	leaq	-1056(%rbp), %rax
	leaq	.LC1(%rip), %rdx
	movq	%rdx, %rsi
	movq	%rax, %rdi
	call	_ZStlsISt11char_traitsIcEERSt13basic_ostreamIcT_ES5_PKc@PLT
	leaq	-1056(%rbp), %rax
	movq	%rax, %rdi
	call	_ZNSt14basic_ofstreamIcSt11char_traitsIcEE5closeEv@PLT
	leaq	-544(%rbp), %rax
	movq	%rax, %rdi
	call	_ZNSt14basic_ofstreamIcSt11char_traitsIcEEC1Ev@PLT
.LEHE125:
	leaq	-544(%rbp), %rax
	movl	$16, %edx
	leaq	.LC57(%rip), %rcx
	movq	%rcx, %rsi
	movq	%rax, %rdi
.LEHB126:
	call	_ZNSt14basic_ofstreamIcSt11char_traitsIcEE4openEPKcSt13_Ios_Openmode@PLT
	leaq	-544(%rbp), %rax
	leaq	.LC1(%rip), %rdx
	movq	%rdx, %rsi
	movq	%rax, %rdi
	call	_ZStlsISt11char_traitsIcEERSt13basic_ostreamIcT_ES5_PKc@PLT
	leaq	-544(%rbp), %rax
	movq	%rax, %rdi
	call	_ZNSt14basic_ofstreamIcSt11char_traitsIcEE5closeEv@PLT
.LEHE126:
	leaq	-544(%rbp), %rax
	movq	%rax, %rdi
	call	_ZNSt14basic_ofstreamIcSt11char_traitsIcEED1Ev@PLT
	leaq	-1056(%rbp), %rax
	movq	%rax, %rdi
	call	_ZNSt14basic_ofstreamIcSt11char_traitsIcEED1Ev@PLT
	leaq	-1568(%rbp), %rax
	movq	%rax, %rdi
	call	_ZNSt14basic_ofstreamIcSt11char_traitsIcEED1Ev@PLT
	leaq	-2080(%rbp), %rax
	movq	%rax, %rdi
	call	_ZNSt14basic_ofstreamIcSt11char_traitsIcEED1Ev@PLT
	leaq	-2592(%rbp), %rax
	movq	%rax, %rdi
	call	_ZNSt14basic_ofstreamIcSt11char_traitsIcEED1Ev@PLT
	leaq	-3104(%rbp), %rax
	movq	%rax, %rdi
	call	_ZNSt14basic_ofstreamIcSt11char_traitsIcEED1Ev@PLT
	leaq	-3616(%rbp), %rax
	movq	%rax, %rdi
	call	_ZNSt14basic_ofstreamIcSt11char_traitsIcEED1Ev@PLT
	leaq	-4128(%rbp), %rax
	movq	%rax, %rdi
	call	_ZNSt14basic_ofstreamIcSt11char_traitsIcEED1Ev@PLT
	movq	-24(%rbp), %rax
	subq	%fs:40, %rax
	je	.L371
	jmp	.L380
.L379:
	endbr64
	movq	%rax, %rbx
	leaq	-544(%rbp), %rax
	movq	%rax, %rdi
	call	_ZNSt14basic_ofstreamIcSt11char_traitsIcEED1Ev@PLT
	jmp	.L364
.L378:
	endbr64
	movq	%rax, %rbx
.L364:
	leaq	-1056(%rbp), %rax
	movq	%rax, %rdi
	call	_ZNSt14basic_ofstreamIcSt11char_traitsIcEED1Ev@PLT
	jmp	.L365
.L377:
	endbr64
	movq	%rax, %rbx
.L365:
	leaq	-1568(%rbp), %rax
	movq	%rax, %rdi
	call	_ZNSt14basic_ofstreamIcSt11char_traitsIcEED1Ev@PLT
	jmp	.L366
.L376:
	endbr64
	movq	%rax, %rbx
.L366:
	leaq	-2080(%rbp), %rax
	movq	%rax, %rdi
	call	_ZNSt14basic_ofstreamIcSt11char_traitsIcEED1Ev@PLT
	jmp	.L367
.L375:
	endbr64
	movq	%rax, %rbx
.L367:
	leaq	-2592(%rbp), %rax
	movq	%rax, %rdi
	call	_ZNSt14basic_ofstreamIcSt11char_traitsIcEED1Ev@PLT
	jmp	.L368
.L374:
	endbr64
	movq	%rax, %rbx
.L368:
	leaq	-3104(%rbp), %rax
	movq	%rax, %rdi
	call	_ZNSt14basic_ofstreamIcSt11char_traitsIcEED1Ev@PLT
	jmp	.L369
.L373:
	endbr64
	movq	%rax, %rbx
.L369:
	leaq	-3616(%rbp), %rax
	movq	%rax, %rdi
	call	_ZNSt14basic_ofstreamIcSt11char_traitsIcEED1Ev@PLT
	jmp	.L370
.L372:
	endbr64
	movq	%rax, %rbx
.L370:
	leaq	-4128(%rbp), %rax
	movq	%rax, %rdi
	call	_ZNSt14basic_ofstreamIcSt11char_traitsIcEED1Ev@PLT
	movq	%rbx, %rax
	movq	%rax, %rdi
.LEHB127:
	call	_Unwind_Resume@PLT
.LEHE127:
.L380:
	call	__stack_chk_fail@PLT
.L371:
	movq	-8(%rbp), %rbx
	leave
	.cfi_def_cfa 7, 8
	ret
	.cfi_endproc
.LFE5101:
	.section	.gcc_except_table
.LLSDA5101:
	.byte	0xff
	.byte	0xff
	.byte	0x1
	.uleb128 .LLSDACSE5101-.LLSDACSB5101
.LLSDACSB5101:
	.uleb128 .LEHB118-.LFB5101
	.uleb128 .LEHE118-.LEHB118
	.uleb128 0
	.uleb128 0
	.uleb128 .LEHB119-.LFB5101
	.uleb128 .LEHE119-.LEHB119
	.uleb128 .L372-.LFB5101
	.uleb128 0
	.uleb128 .LEHB120-.LFB5101
	.uleb128 .LEHE120-.LEHB120
	.uleb128 .L373-.LFB5101
	.uleb128 0
	.uleb128 .LEHB121-.LFB5101
	.uleb128 .LEHE121-.LEHB121
	.uleb128 .L374-.LFB5101
	.uleb128 0
	.uleb128 .LEHB122-.LFB5101
	.uleb128 .LEHE122-.LEHB122
	.uleb128 .L375-.LFB5101
	.uleb128 0
	.uleb128 .LEHB123-.LFB5101
	.uleb128 .LEHE123-.LEHB123
	.uleb128 .L376-.LFB5101
	.uleb128 0
	.uleb128 .LEHB124-.LFB5101
	.uleb128 .LEHE124-.LEHB124
	.uleb128 .L377-.LFB5101
	.uleb128 0
	.uleb128 .LEHB125-.LFB5101
	.uleb128 .LEHE125-.LEHB125
	.uleb128 .L378-.LFB5101
	.uleb128 0
	.uleb128 .LEHB126-.LFB5101
	.uleb128 .LEHE126-.LEHB126
	.uleb128 .L379-.LFB5101
	.uleb128 0
	.uleb128 .LEHB127-.LFB5101
	.uleb128 .LEHE127-.LEHB127
	.uleb128 0
	.uleb128 0
.LLSDACSE5101:
	.text
	.size	_Z5resetv, .-_Z5resetv
	.section	.text._ZN6PersonD2Ev,"axG",@progbits,_ZN6PersonD5Ev,comdat
	.align 2
	.weak	_ZN6PersonD2Ev
	.type	_ZN6PersonD2Ev, @function
_ZN6PersonD2Ev:
.LFB5104:
	.cfi_startproc
	endbr64
	pushq	%rbp
	.cfi_def_cfa_offset 16
	.cfi_offset 6, -16
	movq	%rsp, %rbp
	.cfi_def_cfa_register 6
	subq	$16, %rsp
	movq	%rdi, -8(%rbp)
	movq	-8(%rbp), %rax
	movq	%rax, %rdi
	call	_ZN6WalletD2Ev
	nop
	leave
	.cfi_def_cfa 7, 8
	ret
	.cfi_endproc
.LFE5104:
	.size	_ZN6PersonD2Ev, .-_ZN6PersonD2Ev
	.weak	_ZN6PersonD1Ev
	.set	_ZN6PersonD1Ev,_ZN6PersonD2Ev
	.section	.rodata
	.align 8
.LC84:
	.string	"\320\240\320\265\320\263\320\270\321\201\321\202\321\200\320\260\321\206\320\270\321\217 \320\275\320\276\320\262\320\276\320\263\320\276 \320\272\320\276\321\210\320\265\320\273\321\214\320\272\320\260\n"
.LC85:
	.string	"\320\222\320\262\320\265\320\264\320\270\321\202\320\265 \320\273\320\276\320\263\320\270\320\275: "
.LC86:
	.string	"\320\222\320\262\320\265\320\264\320\270\321\202\320\265 \320\277\320\260\321\200\320\276\320\273\321\214: "
	.align 8
.LC87:
	.string	"\320\232\320\276\321\210\320\265\320\273\320\265\320\272 \321\203\321\201\320\277\320\265\321\210\320\275\320\276 \320\267\320\260\321\200\320\265\320\263\320\270\321\201\321\202\321\200\320\270\321\200\320\276\320\262\320\260\320\275\n"
	.align 8
.LC88:
	.string	"\320\232\320\276\321\210\320\265\320\273\320\265\320\272 \321\203\320\266\320\265 \321\201\320\276\320\267\320\264\320\260\320\275\n"
	.text
	.globl	_Z19wallet_registrationv
	.type	_Z19wallet_registrationv, @function
_Z19wallet_registrationv:
.LFB5102:
	.cfi_startproc
	.cfi_personality 0x9b,DW.ref.__gxx_personality_v0
	.cfi_lsda 0x1b,.LLSDA5102
	endbr64
	pushq	%rbp
	.cfi_def_cfa_offset 16
	.cfi_offset 6, -16
	movq	%rsp, %rbp
	.cfi_def_cfa_register 6
	pushq	%rbx
	subq	$1736, %rsp
	.cfi_offset 3, -24
	movq	%fs:40, %rax
	movq	%rax, -24(%rbp)
	xorl	%eax, %eax
	leaq	-608(%rbp), %rax
	movq	%rax, %rdi
.LEHB128:
	call	_ZNSt14basic_ifstreamIcSt11char_traitsIcEEC1Ev@PLT
.LEHE128:
	leaq	-1728(%rbp), %rax
	movq	%rax, %rdi
	call	_ZNSt7__cxx1112basic_stringIcSt11char_traitsIcESaIcEEC1Ev@PLT
	leaq	-608(%rbp), %rax
	movl	$8, %edx
	leaq	.LC76(%rip), %rcx
	movq	%rcx, %rsi
	movq	%rax, %rdi
.LEHB129:
	call	_ZNSt14basic_ifstreamIcSt11char_traitsIcEE4openEPKcSt13_Ios_Openmode@PLT
	leaq	-1728(%rbp), %rdx
	leaq	-608(%rbp), %rax
	movq	%rdx, %rsi
	movq	%rax, %rdi
	call	_ZStrsIcSt11char_traitsIcESaIcEERSt13basic_istreamIT_T0_ES7_RNSt7__cxx1112basic_stringIS4_S5_T1_EE@PLT
	leaq	-608(%rbp), %rax
	movq	%rax, %rdi
	call	_ZNSt14basic_ifstreamIcSt11char_traitsIcEE5closeEv@PLT
	leaq	-1728(%rbp), %rax
	movq	%rax, %rdi
	call	_ZNKSt7__cxx1112basic_stringIcSt11char_traitsIcESaIcEE5emptyEv@PLT
	testb	%al, %al
	je	.L383
	leaq	.LC84(%rip), %rax
	movq	%rax, %rsi
	leaq	_ZSt4cout(%rip), %rax
	movq	%rax, %rdi
	call	_ZStlsISt11char_traitsIcEERSt13basic_ostreamIcT_ES5_PKc@PLT
	leaq	.LC85(%rip), %rax
	movq	%rax, %rsi
	leaq	_ZSt4cout(%rip), %rax
	movq	%rax, %rdi
	call	_ZStlsISt11char_traitsIcEERSt13basic_ostreamIcT_ES5_PKc@PLT
	leaq	-64(%rbp), %rax
	movq	%rax, %rsi
	leaq	_ZSt3cin(%rip), %rax
	movq	%rax, %rdi
	call	_ZStrsIcSt11char_traitsIcEERSt13basic_istreamIT_T0_ES6_PS3_
	leaq	.LC86(%rip), %rax
	movq	%rax, %rsi
	leaq	_ZSt4cout(%rip), %rax
	movq	%rax, %rdi
	call	_ZStlsISt11char_traitsIcEERSt13basic_ostreamIcT_ES5_PKc@PLT
	leaq	-74(%rbp), %rax
	movq	%rax, %rsi
	leaq	_ZSt3cin(%rip), %rax
	movq	%rax, %rdi
	call	_ZStrsIcSt11char_traitsIcEERSt13basic_istreamIT_T0_ES6_PS3_
.LEHE129:
	movzbl	-64(%rbp), %eax
	cmpb	$96, %al
	jle	.L384
	movzbl	-64(%rbp), %eax
	cmpb	$122, %al
	jg	.L384
	leaq	-1729(%rbp), %rax
	movq	%rax, %rdi
	call	_ZNSaIcEC1Ev@PLT
	leaq	-1729(%rbp), %rdx
	leaq	-74(%rbp), %rcx
	leaq	-1120(%rbp), %rax
	movq	%rcx, %rsi
	movq	%rax, %rdi
.LEHB130:
	call	_ZNSt7__cxx1112basic_stringIcSt11char_traitsIcESaIcEEC1IS3_EEPKcRKS3_
.LEHE130:
	leaq	-1696(%rbp), %rax
	leaq	-1120(%rbp), %rdx
	movq	%rdx, %rsi
	movq	%rax, %rdi
.LEHB131:
	call	_Z7encryptNSt7__cxx1112basic_stringIcSt11char_traitsIcESaIcEEE
.LEHE131:
	leaq	-1120(%rbp), %rax
	movq	%rax, %rdi
	call	_ZNSt7__cxx1112basic_stringIcSt11char_traitsIcESaIcEED1Ev@PLT
	leaq	-1729(%rbp), %rax
	movq	%rax, %rdi
	call	_ZNSaIcED1Ev@PLT
	leaq	-1696(%rbp), %rax
	movq	%rax, %rdi
	call	_ZNKSt7__cxx1112basic_stringIcSt11char_traitsIcESaIcEE5c_strEv@PLT
	movq	%rax, %rdx
	leaq	-74(%rbp), %rax
	movq	%rdx, %rsi
	movq	%rax, %rdi
	call	strcpy@PLT
	leaq	-1729(%rbp), %rax
	movq	%rax, %rdi
	call	_ZNSaIcEC1Ev@PLT
	leaq	-1729(%rbp), %rdx
	leaq	-64(%rbp), %rcx
	leaq	-1632(%rbp), %rax
	movq	%rcx, %rsi
	movq	%rax, %rdi
.LEHB132:
	call	_ZNSt7__cxx1112basic_stringIcSt11char_traitsIcESaIcEEC1IS3_EEPKcRKS3_
.LEHE132:
	leaq	-1730(%rbp), %rax
	movq	%rax, %rdi
	call	_ZNSaIcEC1Ev@PLT
	leaq	-1730(%rbp), %rdx
	leaq	-74(%rbp), %rcx
	leaq	-1664(%rbp), %rax
	movq	%rcx, %rsi
	movq	%rax, %rdi
.LEHB133:
	call	_ZNSt7__cxx1112basic_stringIcSt11char_traitsIcESaIcEEC1IS3_EEPKcRKS3_
.LEHE133:
	leaq	-1632(%rbp), %rdx
	leaq	-1664(%rbp), %rcx
	leaq	-1120(%rbp), %rax
	movq	%rcx, %rsi
	movq	%rax, %rdi
.LEHB134:
	call	_ZN6PersonC1ENSt7__cxx1112basic_stringIcSt11char_traitsIcESaIcEEES5_
.LEHE134:
	leaq	-1664(%rbp), %rax
	movq	%rax, %rdi
	call	_ZNSt7__cxx1112basic_stringIcSt11char_traitsIcESaIcEED1Ev@PLT
	leaq	-1730(%rbp), %rax
	movq	%rax, %rdi
	call	_ZNSaIcED1Ev@PLT
	leaq	-1632(%rbp), %rax
	movq	%rax, %rdi
	call	_ZNSt7__cxx1112basic_stringIcSt11char_traitsIcESaIcEED1Ev@PLT
	leaq	-1729(%rbp), %rax
	movq	%rax, %rdi
	call	_ZNSaIcED1Ev@PLT
	leaq	-1120(%rbp), %rax
	movq	%rax, %rdi
	call	_ZN6PersonD1Ev
	leaq	-1696(%rbp), %rax
	movq	%rax, %rdi
	call	_ZNSt7__cxx1112basic_stringIcSt11char_traitsIcESaIcEED1Ev@PLT
.L384:
	leaq	-1632(%rbp), %rax
	movq	%rax, %rdi
.LEHB135:
	call	_ZNSt14basic_ofstreamIcSt11char_traitsIcEEC1Ev@PLT
.LEHE135:
	leaq	-1632(%rbp), %rax
	movl	$16, %edx
	leaq	.LC76(%rip), %rcx
	movq	%rcx, %rsi
	movq	%rax, %rdi
.LEHB136:
	call	_ZNSt14basic_ofstreamIcSt11char_traitsIcEE4openEPKcSt13_Ios_Openmode@PLT
	leaq	-1632(%rbp), %rax
	movq	%rax, %rdi
	call	_ZNSt14basic_ofstreamIcSt11char_traitsIcEE7is_openEv@PLT
.LEHE136:
	testb	%al, %al
	je	.L385
	leaq	-1729(%rbp), %rax
	movq	%rax, %rdi
	call	_ZNSaIcEC1Ev@PLT
	leaq	-1729(%rbp), %rdx
	leaq	-74(%rbp), %rcx
	leaq	-1120(%rbp), %rax
	movq	%rcx, %rsi
	movq	%rax, %rdi
.LEHB137:
	call	_ZNSt7__cxx1112basic_stringIcSt11char_traitsIcESaIcEEC1IS3_EEPKcRKS3_
.LEHE137:
	leaq	-1664(%rbp), %rax
	leaq	-1120(%rbp), %rdx
	movq	%rdx, %rsi
	movq	%rax, %rdi
.LEHB138:
	call	_Z7encryptNSt7__cxx1112basic_stringIcSt11char_traitsIcESaIcEEE
.LEHE138:
	leaq	-1664(%rbp), %rax
	movq	%rax, %rdi
	call	_ZNSt7__cxx1112basic_stringIcSt11char_traitsIcESaIcEED1Ev@PLT
	leaq	-1120(%rbp), %rax
	movq	%rax, %rdi
	call	_ZNSt7__cxx1112basic_stringIcSt11char_traitsIcESaIcEED1Ev@PLT
	leaq	-1729(%rbp), %rax
	movq	%rax, %rdi
	call	_ZNSaIcED1Ev@PLT
	leaq	-64(%rbp), %rdx
	leaq	-1632(%rbp), %rax
	movq	%rdx, %rsi
	movq	%rax, %rdi
.LEHB139:
	call	_ZStlsISt11char_traitsIcEERSt13basic_ostreamIcT_ES5_PKc@PLT
	movq	%rax, %rdx
	leaq	.LC3(%rip), %rax
	movq	%rax, %rsi
	movq	%rdx, %rdi
	call	_ZStlsISt11char_traitsIcEERSt13basic_ostreamIcT_ES5_PKc@PLT
	movq	%rax, %rdx
	leaq	-74(%rbp), %rax
	movq	%rax, %rsi
	movq	%rdx, %rdi
	call	_ZStlsISt11char_traitsIcEERSt13basic_ostreamIcT_ES5_PKc@PLT
.L385:
	leaq	-1632(%rbp), %rax
	movq	%rax, %rdi
	call	_ZNSt14basic_ofstreamIcSt11char_traitsIcEE5closeEv@PLT
	leaq	-1120(%rbp), %rax
	movq	%rax, %rdi
	call	_ZNSt14basic_ofstreamIcSt11char_traitsIcEEC1Ev@PLT
.LEHE139:
	leaq	-1120(%rbp), %rax
	movl	$8, %edx
	leaq	.LC34(%rip), %rcx
	movq	%rcx, %rsi
	movq	%rax, %rdi
.LEHB140:
	call	_ZNSt14basic_ofstreamIcSt11char_traitsIcEE4openEPKcSt13_Ios_Openmode@PLT
	leaq	-1120(%rbp), %rax
	movl	$-1, %esi
	movq	%rax, %rdi
	call	_ZNSolsEi@PLT
	leaq	-1120(%rbp), %rax
	movq	%rax, %rdi
	call	_ZNSt14basic_ofstreamIcSt11char_traitsIcEE5closeEv@PLT
	leaq	.LC87(%rip), %rax
	movq	%rax, %rsi
	leaq	_ZSt4cout(%rip), %rax
	movq	%rax, %rdi
	call	_ZStlsISt11char_traitsIcEERSt13basic_ostreamIcT_ES5_PKc@PLT
.LEHE140:
	leaq	-1120(%rbp), %rax
	movq	%rax, %rdi
	call	_ZNSt14basic_ofstreamIcSt11char_traitsIcEED1Ev@PLT
	leaq	-1632(%rbp), %rax
	movq	%rax, %rdi
	call	_ZNSt14basic_ofstreamIcSt11char_traitsIcEED1Ev@PLT
	jmp	.L386
.L383:
	leaq	.LC88(%rip), %rax
	movq	%rax, %rsi
	leaq	_ZSt4cout(%rip), %rax
	movq	%rax, %rdi
.LEHB141:
	call	_ZStlsISt11char_traitsIcEERSt13basic_ostreamIcT_ES5_PKc@PLT
.LEHE141:
.L386:
	leaq	-1728(%rbp), %rax
	movq	%rax, %rdi
	call	_ZNSt7__cxx1112basic_stringIcSt11char_traitsIcESaIcEED1Ev@PLT
	leaq	-608(%rbp), %rax
	movq	%rax, %rdi
	call	_ZNSt14basic_ifstreamIcSt11char_traitsIcEED1Ev@PLT
	movq	-24(%rbp), %rax
	subq	%fs:40, %rax
	je	.L397
	jmp	.L408
.L400:
	endbr64
	movq	%rax, %rbx
	leaq	-1120(%rbp), %rax
	movq	%rax, %rdi
	call	_ZNSt7__cxx1112basic_stringIcSt11char_traitsIcESaIcEED1Ev@PLT
	jmp	.L388
.L399:
	endbr64
	movq	%rax, %rbx
.L388:
	leaq	-1729(%rbp), %rax
	movq	%rax, %rdi
	call	_ZNSaIcED1Ev@PLT
	jmp	.L389
.L403:
	endbr64
	movq	%rax, %rbx
	leaq	-1664(%rbp), %rax
	movq	%rax, %rdi
	call	_ZNSt7__cxx1112basic_stringIcSt11char_traitsIcESaIcEED1Ev@PLT
	jmp	.L391
.L402:
	endbr64
	movq	%rax, %rbx
.L391:
	leaq	-1730(%rbp), %rax
	movq	%rax, %rdi
	call	_ZNSaIcED1Ev@PLT
	leaq	-1632(%rbp), %rax
	movq	%rax, %rdi
	call	_ZNSt7__cxx1112basic_stringIcSt11char_traitsIcESaIcEED1Ev@PLT
	jmp	.L392
.L401:
	endbr64
	movq	%rax, %rbx
.L392:
	leaq	-1729(%rbp), %rax
	movq	%rax, %rdi
	call	_ZNSaIcED1Ev@PLT
	leaq	-1696(%rbp), %rax
	movq	%rax, %rdi
	call	_ZNSt7__cxx1112basic_stringIcSt11char_traitsIcESaIcEED1Ev@PLT
	jmp	.L389
.L406:
	endbr64
	movq	%rax, %rbx
	leaq	-1120(%rbp), %rax
	movq	%rax, %rdi
	call	_ZNSt7__cxx1112basic_stringIcSt11char_traitsIcESaIcEED1Ev@PLT
	jmp	.L394
.L405:
	endbr64
	movq	%rax, %rbx
.L394:
	leaq	-1729(%rbp), %rax
	movq	%rax, %rdi
	call	_ZNSaIcED1Ev@PLT
	jmp	.L395
.L407:
	endbr64
	movq	%rax, %rbx
	leaq	-1120(%rbp), %rax
	movq	%rax, %rdi
	call	_ZNSt14basic_ofstreamIcSt11char_traitsIcEED1Ev@PLT
	jmp	.L395
.L404:
	endbr64
	movq	%rax, %rbx
.L395:
	leaq	-1632(%rbp), %rax
	movq	%rax, %rdi
	call	_ZNSt14basic_ofstreamIcSt11char_traitsIcEED1Ev@PLT
	jmp	.L389
.L398:
	endbr64
	movq	%rax, %rbx
.L389:
	leaq	-1728(%rbp), %rax
	movq	%rax, %rdi
	call	_ZNSt7__cxx1112basic_stringIcSt11char_traitsIcESaIcEED1Ev@PLT
	leaq	-608(%rbp), %rax
	movq	%rax, %rdi
	call	_ZNSt14basic_ifstreamIcSt11char_traitsIcEED1Ev@PLT
	movq	%rbx, %rax
	movq	%rax, %rdi
.LEHB142:
	call	_Unwind_Resume@PLT
.LEHE142:
.L408:
	call	__stack_chk_fail@PLT
.L397:
	movq	-8(%rbp), %rbx
	leave
	.cfi_def_cfa 7, 8
	ret
	.cfi_endproc
.LFE5102:
	.section	.gcc_except_table
.LLSDA5102:
	.byte	0xff
	.byte	0xff
	.byte	0x1
	.uleb128 .LLSDACSE5102-.LLSDACSB5102
.LLSDACSB5102:
	.uleb128 .LEHB128-.LFB5102
	.uleb128 .LEHE128-.LEHB128
	.uleb128 0
	.uleb128 0
	.uleb128 .LEHB129-.LFB5102
	.uleb128 .LEHE129-.LEHB129
	.uleb128 .L398-.LFB5102
	.uleb128 0
	.uleb128 .LEHB130-.LFB5102
	.uleb128 .LEHE130-.LEHB130
	.uleb128 .L399-.LFB5102
	.uleb128 0
	.uleb128 .LEHB131-.LFB5102
	.uleb128 .LEHE131-.LEHB131
	.uleb128 .L400-.LFB5102
	.uleb128 0
	.uleb128 .LEHB132-.LFB5102
	.uleb128 .LEHE132-.LEHB132
	.uleb128 .L401-.LFB5102
	.uleb128 0
	.uleb128 .LEHB133-.LFB5102
	.uleb128 .LEHE133-.LEHB133
	.uleb128 .L402-.LFB5102
	.uleb128 0
	.uleb128 .LEHB134-.LFB5102
	.uleb128 .LEHE134-.LEHB134
	.uleb128 .L403-.LFB5102
	.uleb128 0
	.uleb128 .LEHB135-.LFB5102
	.uleb128 .LEHE135-.LEHB135
	.uleb128 .L398-.LFB5102
	.uleb128 0
	.uleb128 .LEHB136-.LFB5102
	.uleb128 .LEHE136-.LEHB136
	.uleb128 .L404-.LFB5102
	.uleb128 0
	.uleb128 .LEHB137-.LFB5102
	.uleb128 .LEHE137-.LEHB137
	.uleb128 .L405-.LFB5102
	.uleb128 0
	.uleb128 .LEHB138-.LFB5102
	.uleb128 .LEHE138-.LEHB138
	.uleb128 .L406-.LFB5102
	.uleb128 0
	.uleb128 .LEHB139-.LFB5102
	.uleb128 .LEHE139-.LEHB139
	.uleb128 .L404-.LFB5102
	.uleb128 0
	.uleb128 .LEHB140-.LFB5102
	.uleb128 .LEHE140-.LEHB140
	.uleb128 .L407-.LFB5102
	.uleb128 0
	.uleb128 .LEHB141-.LFB5102
	.uleb128 .LEHE141-.LEHB141
	.uleb128 .L398-.LFB5102
	.uleb128 0
	.uleb128 .LEHB142-.LFB5102
	.uleb128 .LEHE142-.LEHB142
	.uleb128 0
	.uleb128 0
.LLSDACSE5102:
	.text
	.size	_Z19wallet_registrationv, .-_Z19wallet_registrationv
	.section	.rodata
	.align 8
.LC89:
	.string	"\320\232\320\260\321\200\321\202\320\260 \321\203\320\266\320\265 \320\267\320\260\321\200\320\265\320\263\320\270\321\201\321\202\321\200\320\270\321\200\320\276\320\262\320\260\320\275\320\260 ! \n"
	.text
	.globl	_Z24kredit_card_registrationv
	.type	_Z24kredit_card_registrationv, @function
_Z24kredit_card_registrationv:
.LFB5106:
	.cfi_startproc
	.cfi_personality 0x9b,DW.ref.__gxx_personality_v0
	.cfi_lsda 0x1b,.LLSDA5106
	endbr64
	pushq	%rbp
	.cfi_def_cfa_offset 16
	.cfi_offset 6, -16
	movq	%rsp, %rbp
	.cfi_def_cfa_register 6
	pushq	%rbx
	subq	$1336, %rsp
	.cfi_offset 3, -24
	movq	%fs:40, %rax
	movq	%rax, -24(%rbp)
	xorl	%eax, %eax
	leaq	-1296(%rbp), %rax
	movq	%rax, %rdi
.LEHB143:
	call	_ZN6PersonC1Ev
.LEHE143:
	leaq	-544(%rbp), %rax
	movq	%rax, %rdi
.LEHB144:
	call	_ZNSt14basic_ifstreamIcSt11char_traitsIcEEC1Ev@PLT
.LEHE144:
	leaq	-544(%rbp), %rax
	movl	$8, %edx
	leaq	.LC50(%rip), %rcx
	movq	%rcx, %rsi
	movq	%rax, %rdi
.LEHB145:
	call	_ZNSt14basic_ifstreamIcSt11char_traitsIcEE4openEPKcSt13_Ios_Openmode@PLT
.LEHE145:
	leaq	-1328(%rbp), %rax
	movq	%rax, %rdi
	call	_ZNSt7__cxx1112basic_stringIcSt11char_traitsIcESaIcEEC1Ev@PLT
	leaq	-1328(%rbp), %rdx
	leaq	-544(%rbp), %rax
	movq	%rdx, %rsi
	movq	%rax, %rdi
.LEHB146:
	call	_ZStrsIcSt11char_traitsIcESaIcEERSt13basic_istreamIT_T0_ES7_RNSt7__cxx1112basic_stringIS4_S5_T1_EE@PLT
	leaq	-1328(%rbp), %rax
	movq	%rax, %rdi
	call	_ZNKSt7__cxx1112basic_stringIcSt11char_traitsIcESaIcEE5emptyEv@PLT
	testb	%al, %al
	je	.L410
	leaq	-1296(%rbp), %rax
	movq	%rax, %rdi
	call	_ZN11Kredit_Card8add_cardEv
	movl	$-1, -1332(%rbp)
	leaq	-1056(%rbp), %rax
	movq	%rax, %rdi
	call	_ZNSt14basic_ofstreamIcSt11char_traitsIcEEC1Ev@PLT
.LEHE146:
	leaq	-1056(%rbp), %rax
	movl	$16, %edx
	leaq	.LC50(%rip), %rcx
	movq	%rcx, %rsi
	movq	%rax, %rdi
.LEHB147:
	call	_ZNSt14basic_ofstreamIcSt11char_traitsIcEE4openEPKcSt13_Ios_Openmode@PLT
	leaq	-1056(%rbp), %rax
	movq	%rax, %rdi
	call	_ZNSt14basic_ofstreamIcSt11char_traitsIcEE7is_openEv@PLT
	testb	%al, %al
	je	.L411
	movl	-1332(%rbp), %edx
	leaq	-1056(%rbp), %rax
	movl	%edx, %esi
	movq	%rax, %rdi
	call	_ZNSolsEi@PLT
.L411:
	leaq	-1056(%rbp), %rax
	movq	%rax, %rdi
	call	_ZNSt14basic_ofstreamIcSt11char_traitsIcEE5closeEv@PLT
	leaq	-1296(%rbp), %rax
	movq	%rax, %rdi
	call	_ZN11Kredit_Card15print_card_infoEv
	movq	_ZSt4endlIcSt11char_traitsIcEERSt13basic_ostreamIT_T0_ES6_@GOTPCREL(%rip), %rax
	movq	%rax, %rsi
	leaq	_ZSt4cout(%rip), %rax
	movq	%rax, %rdi
	call	_ZNSolsEPFRSoS_E@PLT
.LEHE147:
	leaq	-1056(%rbp), %rax
	movq	%rax, %rdi
	call	_ZNSt14basic_ofstreamIcSt11char_traitsIcEED1Ev@PLT
	movl	$0, %ebx
	jmp	.L413
.L410:
	leaq	.LC89(%rip), %rax
	movq	%rax, %rsi
	leaq	_ZSt4cout(%rip), %rax
	movq	%rax, %rdi
.LEHB148:
	call	_ZStlsISt11char_traitsIcEERSt13basic_ostreamIcT_ES5_PKc@PLT
	leaq	-1296(%rbp), %rax
	movq	%rax, %rdi
	call	_ZN11Kredit_Card15print_card_infoEv
	call	main
.LEHE148:
	movl	%eax, %ebx
	nop
.L413:
	leaq	-1328(%rbp), %rax
	movq	%rax, %rdi
	call	_ZNSt7__cxx1112basic_stringIcSt11char_traitsIcESaIcEED1Ev@PLT
	leaq	-544(%rbp), %rax
	movq	%rax, %rdi
	call	_ZNSt14basic_ifstreamIcSt11char_traitsIcEED1Ev@PLT
	leaq	-1296(%rbp), %rax
	movq	%rax, %rdi
	call	_ZN6PersonD1Ev
	movl	%ebx, %eax
	movq	-24(%rbp), %rdx
	subq	%fs:40, %rdx
	je	.L419
	jmp	.L424
.L423:
	endbr64
	movq	%rax, %rbx
	leaq	-1056(%rbp), %rax
	movq	%rax, %rdi
	call	_ZNSt14basic_ofstreamIcSt11char_traitsIcEED1Ev@PLT
	jmp	.L416
.L422:
	endbr64
	movq	%rax, %rbx
.L416:
	leaq	-1328(%rbp), %rax
	movq	%rax, %rdi
	call	_ZNSt7__cxx1112basic_stringIcSt11char_traitsIcESaIcEED1Ev@PLT
	jmp	.L417
.L421:
	endbr64
	movq	%rax, %rbx
.L417:
	leaq	-544(%rbp), %rax
	movq	%rax, %rdi
	call	_ZNSt14basic_ifstreamIcSt11char_traitsIcEED1Ev@PLT
	jmp	.L418
.L420:
	endbr64
	movq	%rax, %rbx
.L418:
	leaq	-1296(%rbp), %rax
	movq	%rax, %rdi
	call	_ZN6PersonD1Ev
	movq	%rbx, %rax
	movq	%rax, %rdi
.LEHB149:
	call	_Unwind_Resume@PLT
.LEHE149:
.L424:
	call	__stack_chk_fail@PLT
.L419:
	movq	-8(%rbp), %rbx
	leave
	.cfi_def_cfa 7, 8
	ret
	.cfi_endproc
.LFE5106:
	.section	.gcc_except_table
.LLSDA5106:
	.byte	0xff
	.byte	0xff
	.byte	0x1
	.uleb128 .LLSDACSE5106-.LLSDACSB5106
.LLSDACSB5106:
	.uleb128 .LEHB143-.LFB5106
	.uleb128 .LEHE143-.LEHB143
	.uleb128 0
	.uleb128 0
	.uleb128 .LEHB144-.LFB5106
	.uleb128 .LEHE144-.LEHB144
	.uleb128 .L420-.LFB5106
	.uleb128 0
	.uleb128 .LEHB145-.LFB5106
	.uleb128 .LEHE145-.LEHB145
	.uleb128 .L421-.LFB5106
	.uleb128 0
	.uleb128 .LEHB146-.LFB5106
	.uleb128 .LEHE146-.LEHB146
	.uleb128 .L422-.LFB5106
	.uleb128 0
	.uleb128 .LEHB147-.LFB5106
	.uleb128 .LEHE147-.LEHB147
	.uleb128 .L423-.LFB5106
	.uleb128 0
	.uleb128 .LEHB148-.LFB5106
	.uleb128 .LEHE148-.LEHB148
	.uleb128 .L422-.LFB5106
	.uleb128 0
	.uleb128 .LEHB149-.LFB5106
	.uleb128 .LEHE149-.LEHB149
	.uleb128 0
	.uleb128 0
.LLSDACSE5106:
	.text
	.size	_Z24kredit_card_registrationv, .-_Z24kredit_card_registrationv
	.section	.rodata
.LC90:
	.string	"\320\222\321\205\320\276\320\264 \320\262 \320\272\320\276\321\210\320\265\320\273\321\221\320\272\n"
	.align 8
.LC91:
	.string	"\320\235\320\265\320\262\320\265\321\200\320\275\321\213\320\271 \320\273\320\276\320\263\320\270\320\275 \320\270\320\273\320\270 \320\277\320\260\321\200\320\276\320\273\321\214\n"
	.align 8
.LC92:
	.string	"\320\222\321\205\320\276\320\264 \320\262 \320\272\320\276\321\210\320\265\320\273\320\265\320\272 \320\262\321\213\320\277\320\276\320\273\320\275\320\265\320\275 \321\203\321\201\320\277\320\265\321\210\320\275\320\276! \n"
	.align 8
.LC93:
	.string	"\320\222\321\213 \321\203\320\266\320\265 \320\262\320\276\321\210\320\273\320\270 \320\262 \320\272\320\276\321\210\320\265\320\273\320\265\320\272!\n"
	.text
	.globl	_Z12wallet_enterv
	.type	_Z12wallet_enterv, @function
_Z12wallet_enterv:
.LFB5107:
	.cfi_startproc
	.cfi_personality 0x9b,DW.ref.__gxx_personality_v0
	.cfi_lsda 0x1b,.LLSDA5107
	endbr64
	pushq	%rbp
	.cfi_def_cfa_offset 16
	.cfi_offset 6, -16
	movq	%rsp, %rbp
	.cfi_def_cfa_register 6
	pushq	%r12
	pushq	%rbx
	subq	$1376, %rsp
	.cfi_offset 12, -24
	.cfi_offset 3, -32
	movq	%fs:40, %rax
	movq	%rax, -24(%rbp)
	xorl	%eax, %eax
	movl	$-1, -1380(%rbp)
	leaq	-560(%rbp), %rax
	movq	%rax, %rdi
.LEHB150:
	call	_ZNSt14basic_ifstreamIcSt11char_traitsIcEEC1Ev@PLT
.LEHE150:
	leaq	-560(%rbp), %rax
	movl	$8, %edx
	leaq	.LC34(%rip), %rcx
	movq	%rcx, %rsi
	movq	%rax, %rdi
.LEHB151:
	call	_ZNSt14basic_ifstreamIcSt11char_traitsIcEE4openEPKcSt13_Ios_Openmode@PLT
	leaq	-1380(%rbp), %rdx
	leaq	-560(%rbp), %rax
	movq	%rdx, %rsi
	movq	%rax, %rdi
	call	_ZNSirsERi@PLT
	leaq	-560(%rbp), %rax
	movq	%rax, %rdi
	call	_ZNSt14basic_ifstreamIcSt11char_traitsIcEE5closeEv@PLT
	movl	-1380(%rbp), %eax
	cmpl	$-1, %eax
	jne	.L426
	leaq	.LC90(%rip), %rax
	movq	%rax, %rsi
	leaq	_ZSt4cout(%rip), %rax
	movq	%rax, %rdi
	call	_ZStlsISt11char_traitsIcEERSt13basic_ostreamIcT_ES5_PKc@PLT
	leaq	.LC85(%rip), %rax
	movq	%rax, %rsi
	leaq	_ZSt4cout(%rip), %rax
	movq	%rax, %rdi
	call	_ZStlsISt11char_traitsIcEERSt13basic_ostreamIcT_ES5_PKc@PLT
.LEHE151:
	leaq	-1376(%rbp), %rax
	movq	%rax, %rdi
	call	_ZNSt7__cxx1112basic_stringIcSt11char_traitsIcESaIcEEC1Ev@PLT
	leaq	-1376(%rbp), %rax
	movq	%rax, %rsi
	leaq	_ZSt3cin(%rip), %rax
	movq	%rax, %rdi
.LEHB152:
	call	_ZStrsIcSt11char_traitsIcESaIcEERSt13basic_istreamIT_T0_ES7_RNSt7__cxx1112basic_stringIS4_S5_T1_EE@PLT
	movq	%rax, %rdi
	call	_ZNSi3getEv@PLT
	leaq	.LC86(%rip), %rax
	movq	%rax, %rsi
	leaq	_ZSt4cout(%rip), %rax
	movq	%rax, %rdi
	call	_ZStlsISt11char_traitsIcEERSt13basic_ostreamIcT_ES5_PKc@PLT
	leaq	-34(%rbp), %rax
	movq	%rax, %rsi
	leaq	_ZSt3cin(%rip), %rax
	movq	%rax, %rdi
	call	_ZStrsIcSt11char_traitsIcEERSt13basic_istreamIT_T0_ES6_PS3_
.LEHE152:
	leaq	-1381(%rbp), %rax
	movq	%rax, %rdi
	call	_ZNSaIcEC1Ev@PLT
	leaq	-1381(%rbp), %rdx
	leaq	-34(%rbp), %rcx
	leaq	-1072(%rbp), %rax
	movq	%rcx, %rsi
	movq	%rax, %rdi
.LEHB153:
	call	_ZNSt7__cxx1112basic_stringIcSt11char_traitsIcESaIcEEC1IS3_EEPKcRKS3_
.LEHE153:
	leaq	-1376(%rbp), %rdx
	leaq	-1344(%rbp), %rax
	movq	%rdx, %rsi
	movq	%rax, %rdi
.LEHB154:
	call	_ZNSt7__cxx1112basic_stringIcSt11char_traitsIcESaIcEEC1ERKS4_@PLT
.LEHE154:
	leaq	-1072(%rbp), %rdx
	leaq	-1344(%rbp), %rcx
	leaq	-1312(%rbp), %rax
	movq	%rcx, %rsi
	movq	%rax, %rdi
.LEHB155:
	call	_ZN6PersonC1ENSt7__cxx1112basic_stringIcSt11char_traitsIcESaIcEEES5_
.LEHE155:
	leaq	-1344(%rbp), %rax
	movq	%rax, %rdi
	call	_ZNSt7__cxx1112basic_stringIcSt11char_traitsIcESaIcEED1Ev@PLT
	leaq	-1072(%rbp), %rax
	movq	%rax, %rdi
	call	_ZNSt7__cxx1112basic_stringIcSt11char_traitsIcESaIcEED1Ev@PLT
	leaq	-1381(%rbp), %rax
	movq	%rax, %rdi
	call	_ZNSaIcED1Ev@PLT
	leaq	-1381(%rbp), %rax
	movq	%rax, %rdi
	call	_ZNSaIcEC1Ev@PLT
	leaq	-1381(%rbp), %rdx
	leaq	-34(%rbp), %rcx
	leaq	-1072(%rbp), %rax
	movq	%rcx, %rsi
	movq	%rax, %rdi
.LEHB156:
	call	_ZNSt7__cxx1112basic_stringIcSt11char_traitsIcESaIcEEC1IS3_EEPKcRKS3_
.LEHE156:
	leaq	-1376(%rbp), %rdx
	leaq	-1344(%rbp), %rax
	movq	%rdx, %rsi
	movq	%rax, %rdi
.LEHB157:
	call	_ZNSt7__cxx1112basic_stringIcSt11char_traitsIcESaIcEEC1ERKS4_@PLT
.LEHE157:
	leaq	-1072(%rbp), %rdx
	leaq	-1344(%rbp), %rcx
	leaq	-1312(%rbp), %rax
	movq	%rcx, %rsi
	movq	%rax, %rdi
.LEHB158:
	call	_ZN6Person18check_password_logENSt7__cxx1112basic_stringIcSt11char_traitsIcESaIcEEES5_
.LEHE158:
	testl	%eax, %eax
	sete	%r12b
	leaq	-1344(%rbp), %rax
	movq	%rax, %rdi
	call	_ZNSt7__cxx1112basic_stringIcSt11char_traitsIcESaIcEED1Ev@PLT
	leaq	-1072(%rbp), %rax
	movq	%rax, %rdi
	call	_ZNSt7__cxx1112basic_stringIcSt11char_traitsIcESaIcEED1Ev@PLT
	leaq	-1381(%rbp), %rax
	movq	%rax, %rdi
	call	_ZNSaIcED1Ev@PLT
	testb	%r12b, %r12b
	je	.L427
	leaq	.LC91(%rip), %rax
	movq	%rax, %rsi
	leaq	_ZSt4cout(%rip), %rax
	movq	%rax, %rdi
.LEHB159:
	call	_ZStlsISt11char_traitsIcEERSt13basic_ostreamIcT_ES5_PKc@PLT
	call	main
	movl	%eax, %ebx
	movl	$0, %r12d
	jmp	.L428
.L427:
	movl	-1380(%rbp), %eax
	addl	$1, %eax
	movl	%eax, -1380(%rbp)
	leaq	-1072(%rbp), %rax
	movq	%rax, %rdi
	call	_ZNSt14basic_ofstreamIcSt11char_traitsIcEEC1Ev@PLT
.LEHE159:
	leaq	-1072(%rbp), %rax
	movl	$16, %edx
	leaq	.LC34(%rip), %rcx
	movq	%rcx, %rsi
	movq	%rax, %rdi
.LEHB160:
	call	_ZNSt14basic_ofstreamIcSt11char_traitsIcEE4openEPKcSt13_Ios_Openmode@PLT
	movl	-1380(%rbp), %edx
	leaq	-1072(%rbp), %rax
	movl	%edx, %esi
	movq	%rax, %rdi
	call	_ZNSolsEi@PLT
	leaq	-1072(%rbp), %rax
	movq	%rax, %rdi
	call	_ZNSt14basic_ofstreamIcSt11char_traitsIcEE5closeEv@PLT
	leaq	.LC92(%rip), %rax
	movq	%rax, %rsi
	leaq	_ZSt4cout(%rip), %rax
	movq	%rax, %rdi
	call	_ZStlsISt11char_traitsIcEERSt13basic_ostreamIcT_ES5_PKc@PLT
.LEHE160:
	leaq	-1072(%rbp), %rax
	movq	%rax, %rdi
	call	_ZNSt14basic_ofstreamIcSt11char_traitsIcEED1Ev@PLT
	movl	$1, %r12d
.L428:
	leaq	-1312(%rbp), %rax
	movq	%rax, %rdi
	call	_ZN6PersonD1Ev
	cmpl	$1, %r12d
	jne	.L429
	movl	$1, %r12d
	jmp	.L430
.L429:
	movl	$0, %r12d
.L430:
	leaq	-1376(%rbp), %rax
	movq	%rax, %rdi
	call	_ZNSt7__cxx1112basic_stringIcSt11char_traitsIcESaIcEED1Ev@PLT
	cmpl	$1, %r12d
	jne	.L433
	jmp	.L456
.L426:
	leaq	.LC93(%rip), %rax
	movq	%rax, %rsi
	leaq	_ZSt4cout(%rip), %rax
	movq	%rax, %rdi
.LEHB161:
	call	_ZStlsISt11char_traitsIcEERSt13basic_ostreamIcT_ES5_PKc@PLT
	call	main
.LEHE161:
	movl	%eax, %ebx
	jmp	.L433
.L456:
	movl	$0, %ebx
.L433:
	leaq	-560(%rbp), %rax
	movq	%rax, %rdi
	call	_ZNSt14basic_ifstreamIcSt11char_traitsIcEED1Ev@PLT
	movl	%ebx, %eax
	movq	-24(%rbp), %rdx
	subq	%fs:40, %rdx
	je	.L445
	jmp	.L457
.L450:
	endbr64
	movq	%rax, %rbx
	leaq	-1344(%rbp), %rax
	movq	%rax, %rdi
	call	_ZNSt7__cxx1112basic_stringIcSt11char_traitsIcESaIcEED1Ev@PLT
	jmp	.L436
.L449:
	endbr64
	movq	%rax, %rbx
.L436:
	leaq	-1072(%rbp), %rax
	movq	%rax, %rdi
	call	_ZNSt7__cxx1112basic_stringIcSt11char_traitsIcESaIcEED1Ev@PLT
	jmp	.L437
.L448:
	endbr64
	movq	%rax, %rbx
.L437:
	leaq	-1381(%rbp), %rax
	movq	%rax, %rdi
	call	_ZNSaIcED1Ev@PLT
	jmp	.L438
.L453:
	endbr64
	movq	%rax, %rbx
	leaq	-1344(%rbp), %rax
	movq	%rax, %rdi
	call	_ZNSt7__cxx1112basic_stringIcSt11char_traitsIcESaIcEED1Ev@PLT
	jmp	.L440
.L452:
	endbr64
	movq	%rax, %rbx
.L440:
	leaq	-1072(%rbp), %rax
	movq	%rax, %rdi
	call	_ZNSt7__cxx1112basic_stringIcSt11char_traitsIcESaIcEED1Ev@PLT
	jmp	.L441
.L451:
	endbr64
	movq	%rax, %rbx
.L441:
	leaq	-1381(%rbp), %rax
	movq	%rax, %rdi
	call	_ZNSaIcED1Ev@PLT
	jmp	.L442
.L455:
	endbr64
	movq	%rax, %rbx
	leaq	-1072(%rbp), %rax
	movq	%rax, %rdi
	call	_ZNSt14basic_ofstreamIcSt11char_traitsIcEED1Ev@PLT
	jmp	.L442
.L454:
	endbr64
	movq	%rax, %rbx
.L442:
	leaq	-1312(%rbp), %rax
	movq	%rax, %rdi
	call	_ZN6PersonD1Ev
	jmp	.L438
.L447:
	endbr64
	movq	%rax, %rbx
.L438:
	leaq	-1376(%rbp), %rax
	movq	%rax, %rdi
	call	_ZNSt7__cxx1112basic_stringIcSt11char_traitsIcESaIcEED1Ev@PLT
	jmp	.L444
.L446:
	endbr64
	movq	%rax, %rbx
.L444:
	leaq	-560(%rbp), %rax
	movq	%rax, %rdi
	call	_ZNSt14basic_ifstreamIcSt11char_traitsIcEED1Ev@PLT
	movq	%rbx, %rax
	movq	%rax, %rdi
.LEHB162:
	call	_Unwind_Resume@PLT
.LEHE162:
.L457:
	call	__stack_chk_fail@PLT
.L445:
	addq	$1376, %rsp
	popq	%rbx
	popq	%r12
	popq	%rbp
	.cfi_def_cfa 7, 8
	ret
	.cfi_endproc
.LFE5107:
	.section	.gcc_except_table
.LLSDA5107:
	.byte	0xff
	.byte	0xff
	.byte	0x1
	.uleb128 .LLSDACSE5107-.LLSDACSB5107
.LLSDACSB5107:
	.uleb128 .LEHB150-.LFB5107
	.uleb128 .LEHE150-.LEHB150
	.uleb128 0
	.uleb128 0
	.uleb128 .LEHB151-.LFB5107
	.uleb128 .LEHE151-.LEHB151
	.uleb128 .L446-.LFB5107
	.uleb128 0
	.uleb128 .LEHB152-.LFB5107
	.uleb128 .LEHE152-.LEHB152
	.uleb128 .L447-.LFB5107
	.uleb128 0
	.uleb128 .LEHB153-.LFB5107
	.uleb128 .LEHE153-.LEHB153
	.uleb128 .L448-.LFB5107
	.uleb128 0
	.uleb128 .LEHB154-.LFB5107
	.uleb128 .LEHE154-.LEHB154
	.uleb128 .L449-.LFB5107
	.uleb128 0
	.uleb128 .LEHB155-.LFB5107
	.uleb128 .LEHE155-.LEHB155
	.uleb128 .L450-.LFB5107
	.uleb128 0
	.uleb128 .LEHB156-.LFB5107
	.uleb128 .LEHE156-.LEHB156
	.uleb128 .L451-.LFB5107
	.uleb128 0
	.uleb128 .LEHB157-.LFB5107
	.uleb128 .LEHE157-.LEHB157
	.uleb128 .L452-.LFB5107
	.uleb128 0
	.uleb128 .LEHB158-.LFB5107
	.uleb128 .LEHE158-.LEHB158
	.uleb128 .L453-.LFB5107
	.uleb128 0
	.uleb128 .LEHB159-.LFB5107
	.uleb128 .LEHE159-.LEHB159
	.uleb128 .L454-.LFB5107
	.uleb128 0
	.uleb128 .LEHB160-.LFB5107
	.uleb128 .LEHE160-.LEHB160
	.uleb128 .L455-.LFB5107
	.uleb128 0
	.uleb128 .LEHB161-.LFB5107
	.uleb128 .LEHE161-.LEHB161
	.uleb128 .L446-.LFB5107
	.uleb128 0
	.uleb128 .LEHB162-.LFB5107
	.uleb128 .LEHE162-.LEHB162
	.uleb128 0
	.uleb128 0
.LLSDACSE5107:
	.text
	.size	_Z12wallet_enterv, .-_Z12wallet_enterv
	.section	.rodata
.LC94:
	.string	"\320\222\321\205\320\276\320\264 \320\262 \320\272\320\260\321\200\321\202\321\203\n"
	.align 8
.LC95:
	.string	"\320\222\320\262\320\265\320\264\320\270\321\202\320\265 \320\275\320\276\320\274\320\265\321\200 \320\272\320\260\321\200\321\202\321\213(\320\261\320\265\320\267 \320\277\321\200\320\276\320\261\320\265\320\273\320\276\320\262): "
	.align 8
.LC96:
	.string	"\320\222\320\262\320\265\320\264\320\270\321\202\320\265 \321\201\321\200\320\276\320\272 \320\270\321\201\321\202\320\265\321\207\320\265\320\275\320\270\321\217 \320\272\320\260\321\200\321\202\321\213(\320\263\320\263\320\263\320\263/\320\274\320\274): "
	.align 8
.LC97:
	.string	"\320\222\320\262\320\265\320\264\320\270\321\202\320\265 \320\272\320\276\320\264(cvv) \320\272\320\260\321\200\321\202\321\213: "
	.align 8
.LC98:
	.string	"\320\222\320\262\320\265\320\264\320\270\321\202\320\265 \320\277\320\260\321\200\320\276\320\273\321\214 \320\276\321\202 \320\272\320\260\321\200\321\202\321\213: "
.LC99:
	.string	"\320\272\320\260\321\200\321\202\321\213:"
	.align 8
.LC100:
	.string	"\n\320\235\320\276\320\274\320\265\321\200 \320\272\320\260\321\200\321\202\321\213 \320\262\320\265\321\200\320\275\321\213\320\271 \n"
	.align 8
.LC101:
	.string	"\320\235\320\276\320\274\320\265\321\200 \320\272\320\260\321\200\321\202\321\213 \320\275\320\265 \320\262\320\265\321\200\320\275\321\213\320\271\n"
.LC102:
	.string	"\320\264\320\260\321\202\320\260:"
	.align 8
.LC103:
	.string	"\320\241\321\200\320\276\320\272 \320\270\321\201\321\202\320\265\321\207\320\265\320\275\320\270\321\217 \320\272\320\260\321\200\321\202\321\213 \320\262\320\265\321\200\320\275\321\213\320\271\n"
	.align 8
.LC104:
	.string	"\320\241\321\200\320\276\320\272 \320\270\321\201\321\202\320\265\321\207\320\265\320\275\320\270\321\217 \320\272\320\260\321\200\321\202\321\213 \320\275\320\265 \320\262\320\265\321\200\320\275\321\213\320\271\n"
.LC105:
	.string	"cvv:"
	.align 8
.LC106:
	.string	"\320\232\320\276\320\264 \320\272\320\260\321\200\321\202\321\213 \320\262\320\265\321\200\320\275\321\213\320\271\n"
	.align 8
.LC107:
	.string	"\320\232\320\276\320\264 \320\272\320\260\321\200\321\202\321\213 \320\275\320\265 \320\262\320\265\321\200\320\275\321\213\320\271\n"
.LC108:
	.string	"\320\277\320\260\321\200\320\276\320\273\321\214:"
.LC109:
	.string	"\320\237\320\260\321\200\320\276\320\273\321\214 \320\262\320\265\321\200\320\275\321\213\320\271\n"
	.align 8
.LC110:
	.string	"\320\237\320\260\321\200\320\276\320\273\321\214 \320\275\320\265 \320\262\320\265\321\200\320\275\321\213\320\271\n"
	.align 8
.LC111:
	.string	"\n\320\222\321\213 \321\203\321\201\320\277\320\265\321\210\320\275\320\276 \320\262\320\276\321\210\320\273\320\270 \320\262 \320\272\320\260\321\200\321\202\321\203\n"
	.align 8
.LC112:
	.string	"\320\222\321\213 \321\207\321\202\320\276-\321\202\320\276 \320\262\320\262\320\265\320\273\320\270 \320\275\320\265\320\262\320\265\321\200\320\275\320\276 \320\277\320\276\320\262\321\202\320\276\321\200\320\270\321\202\320\265 \320\277\320\276\320\277\321\213\321\202\320\272\321\203 \320\262\321\205\320\276\320\264\320\260 \n"
	.align 8
.LC113:
	.string	"\n\320\222\321\213 \320\275\320\265 \320\267\320\260\321\200\320\265\320\263\320\270\321\201\321\202\321\200\320\270\321\200\320\276\320\262\320\260\320\273\320\270 \320\272\320\260\321\200\321\202\321\203 \320\270\320\273\320\270 \321\203\320\266\320\265 \320\262\320\276\321\210\320\273\320\270 \320\262 \320\275\320\265\321\221 \n"
	.text
	.globl	_Z10card_enterv
	.type	_Z10card_enterv, @function
_Z10card_enterv:
.LFB5108:
	.cfi_startproc
	.cfi_personality 0x9b,DW.ref.__gxx_personality_v0
	.cfi_lsda 0x1b,.LLSDA5108
	endbr64
	pushq	%rbp
	.cfi_def_cfa_offset 16
	.cfi_offset 6, -16
	movq	%rsp, %rbp
	.cfi_def_cfa_register 6
	pushq	%rbx
	subq	$1784, %rsp
	.cfi_offset 3, -24
	movq	%fs:40, %rax
	movq	%rax, -24(%rbp)
	xorl	%eax, %eax
	leaq	-1072(%rbp), %rax
	movq	%rax, %rdi
.LEHB163:
	call	_ZNSt14basic_ifstreamIcSt11char_traitsIcEEC1Ev@PLT
.LEHE163:
	movl	$0, -1784(%rbp)
	leaq	-1072(%rbp), %rax
	movl	$8, %edx
	leaq	.LC50(%rip), %rcx
	movq	%rcx, %rsi
	movq	%rax, %rdi
.LEHB164:
	call	_ZNSt14basic_ifstreamIcSt11char_traitsIcEE4openEPKcSt13_Ios_Openmode@PLT
	leaq	-1784(%rbp), %rdx
	leaq	-1072(%rbp), %rax
	movq	%rdx, %rsi
	movq	%rax, %rdi
	call	_ZNSirsERi@PLT
	leaq	-1072(%rbp), %rax
	movq	%rax, %rdi
	call	_ZNSt14basic_ifstreamIcSt11char_traitsIcEE5closeEv@PLT
.LEHE164:
	movl	-1784(%rbp), %eax
	cmpl	$-1, %eax
	jne	.L459
	leaq	-1776(%rbp), %rax
	movq	%rax, %rdi
	call	_ZNSt7__cxx1112basic_stringIcSt11char_traitsIcESaIcEEC1Ev@PLT
	leaq	-1744(%rbp), %rax
	movq	%rax, %rdi
	call	_ZNSt7__cxx1112basic_stringIcSt11char_traitsIcESaIcEEC1Ev@PLT
	leaq	-1712(%rbp), %rax
	movq	%rax, %rdi
	call	_ZNSt7__cxx1112basic_stringIcSt11char_traitsIcESaIcEEC1Ev@PLT
	leaq	-1680(%rbp), %rax
	movq	%rax, %rdi
	call	_ZNSt7__cxx1112basic_stringIcSt11char_traitsIcESaIcEEC1Ev@PLT
	movl	$0, -1780(%rbp)
	leaq	.LC94(%rip), %rax
	movq	%rax, %rsi
	leaq	_ZSt4cout(%rip), %rax
	movq	%rax, %rdi
.LEHB165:
	call	_ZStlsISt11char_traitsIcEERSt13basic_ostreamIcT_ES5_PKc@PLT
	leaq	.LC95(%rip), %rax
	movq	%rax, %rsi
	leaq	_ZSt4cout(%rip), %rax
	movq	%rax, %rdi
	call	_ZStlsISt11char_traitsIcEERSt13basic_ostreamIcT_ES5_PKc@PLT
	leaq	-1776(%rbp), %rax
	movq	%rax, %rsi
	leaq	_ZSt3cin(%rip), %rax
	movq	%rax, %rdi
	call	_ZStrsIcSt11char_traitsIcESaIcEERSt13basic_istreamIT_T0_ES7_RNSt7__cxx1112basic_stringIS4_S5_T1_EE@PLT
	leaq	.LC96(%rip), %rax
	movq	%rax, %rsi
	leaq	_ZSt4cout(%rip), %rax
	movq	%rax, %rdi
	call	_ZStlsISt11char_traitsIcEERSt13basic_ostreamIcT_ES5_PKc@PLT
	leaq	-1744(%rbp), %rax
	movq	%rax, %rsi
	leaq	_ZSt3cin(%rip), %rax
	movq	%rax, %rdi
	call	_ZStrsIcSt11char_traitsIcESaIcEERSt13basic_istreamIT_T0_ES7_RNSt7__cxx1112basic_stringIS4_S5_T1_EE@PLT
	leaq	.LC97(%rip), %rax
	movq	%rax, %rsi
	leaq	_ZSt4cout(%rip), %rax
	movq	%rax, %rdi
	call	_ZStlsISt11char_traitsIcEERSt13basic_ostreamIcT_ES5_PKc@PLT
	leaq	-1712(%rbp), %rax
	movq	%rax, %rsi
	leaq	_ZSt3cin(%rip), %rax
	movq	%rax, %rdi
	call	_ZStrsIcSt11char_traitsIcESaIcEERSt13basic_istreamIT_T0_ES7_RNSt7__cxx1112basic_stringIS4_S5_T1_EE@PLT
	leaq	.LC98(%rip), %rax
	movq	%rax, %rsi
	leaq	_ZSt4cout(%rip), %rax
	movq	%rax, %rdi
	call	_ZStlsISt11char_traitsIcEERSt13basic_ostreamIcT_ES5_PKc@PLT
	leaq	-1680(%rbp), %rax
	movq	%rax, %rsi
	leaq	_ZSt3cin(%rip), %rax
	movq	%rax, %rdi
	call	_ZStrsIcSt11char_traitsIcESaIcEERSt13basic_istreamIT_T0_ES7_RNSt7__cxx1112basic_stringIS4_S5_T1_EE@PLT
.LEHE165:
	leaq	-1648(%rbp), %rax
	movq	%rax, %rdi
	call	_ZNSt7__cxx1112basic_stringIcSt11char_traitsIcESaIcEEC1Ev@PLT
	leaq	-1616(%rbp), %rax
	movq	%rax, %rdi
	call	_ZNSt7__cxx1112basic_stringIcSt11char_traitsIcESaIcEEC1Ev@PLT
	leaq	-544(%rbp), %rax
	movq	%rax, %rdi
.LEHB166:
	call	_ZNSt14basic_ifstreamIcSt11char_traitsIcEEC1Ev@PLT
.LEHE166:
	leaq	-544(%rbp), %rax
	movl	$8, %edx
	leaq	.LC15(%rip), %rcx
	movq	%rcx, %rsi
	movq	%rax, %rdi
.LEHB167:
	call	_ZNSt14basic_ifstreamIcSt11char_traitsIcEE4openEPKcSt13_Ios_Openmode@PLT
	jmp	.L460
.L468:
	leaq	-1648(%rbp), %rdx
	leaq	-544(%rbp), %rax
	movq	%rdx, %rsi
	movq	%rax, %rdi
	call	_ZStrsIcSt11char_traitsIcESaIcEERSt13basic_istreamIT_T0_ES7_RNSt7__cxx1112basic_stringIS4_S5_T1_EE@PLT
	leaq	-1648(%rbp), %rax
	leaq	.LC99(%rip), %rdx
	movq	%rdx, %rsi
	movq	%rax, %rdi
	call	_ZSteqIcSt11char_traitsIcESaIcEEbRKNSt7__cxx1112basic_stringIT_T0_T1_EEPKS5_
	testb	%al, %al
	je	.L461
	leaq	-1616(%rbp), %rdx
	leaq	-544(%rbp), %rax
	movq	%rdx, %rsi
	movq	%rax, %rdi
	call	_ZStrsIcSt11char_traitsIcESaIcEERSt13basic_istreamIT_T0_ES7_RNSt7__cxx1112basic_stringIS4_S5_T1_EE@PLT
	leaq	-1776(%rbp), %rax
	movq	%rax, %rdi
	call	_ZNKSt7__cxx1112basic_stringIcSt11char_traitsIcESaIcEE5c_strEv@PLT
	movq	%rax, %rbx
	leaq	-1616(%rbp), %rax
	movq	%rax, %rdi
	call	_ZNKSt7__cxx1112basic_stringIcSt11char_traitsIcESaIcEE5c_strEv@PLT
	movq	%rbx, %rsi
	movq	%rax, %rdi
	call	strcmp@PLT
	testl	%eax, %eax
	sete	%al
	testb	%al, %al
	je	.L462
	leaq	.LC100(%rip), %rax
	movq	%rax, %rsi
	leaq	_ZSt4cout(%rip), %rax
	movq	%rax, %rdi
	call	_ZStlsISt11char_traitsIcEERSt13basic_ostreamIcT_ES5_PKc@PLT
	addl	$1, -1780(%rbp)
	jmp	.L461
.L462:
	leaq	.LC101(%rip), %rax
	movq	%rax, %rsi
	leaq	_ZSt4cout(%rip), %rax
	movq	%rax, %rdi
	call	_ZStlsISt11char_traitsIcEERSt13basic_ostreamIcT_ES5_PKc@PLT
.L461:
	leaq	-1648(%rbp), %rax
	leaq	.LC102(%rip), %rdx
	movq	%rdx, %rsi
	movq	%rax, %rdi
	call	_ZSteqIcSt11char_traitsIcESaIcEEbRKNSt7__cxx1112basic_stringIT_T0_T1_EEPKS5_
	testb	%al, %al
	je	.L463
	leaq	-1616(%rbp), %rdx
	leaq	-544(%rbp), %rax
	movq	%rdx, %rsi
	movq	%rax, %rdi
	call	_ZStrsIcSt11char_traitsIcESaIcEERSt13basic_istreamIT_T0_ES7_RNSt7__cxx1112basic_stringIS4_S5_T1_EE@PLT
	leaq	-1744(%rbp), %rax
	movq	%rax, %rdi
	call	_ZNKSt7__cxx1112basic_stringIcSt11char_traitsIcESaIcEE5c_strEv@PLT
	movq	%rax, %rbx
	leaq	-1616(%rbp), %rax
	movq	%rax, %rdi
	call	_ZNKSt7__cxx1112basic_stringIcSt11char_traitsIcESaIcEE5c_strEv@PLT
	movq	%rbx, %rsi
	movq	%rax, %rdi
	call	strcmp@PLT
	testl	%eax, %eax
	sete	%al
	testb	%al, %al
	je	.L464
	leaq	.LC103(%rip), %rax
	movq	%rax, %rsi
	leaq	_ZSt4cout(%rip), %rax
	movq	%rax, %rdi
	call	_ZStlsISt11char_traitsIcEERSt13basic_ostreamIcT_ES5_PKc@PLT
	addl	$1, -1780(%rbp)
	jmp	.L463
.L464:
	leaq	.LC104(%rip), %rax
	movq	%rax, %rsi
	leaq	_ZSt4cout(%rip), %rax
	movq	%rax, %rdi
	call	_ZStlsISt11char_traitsIcEERSt13basic_ostreamIcT_ES5_PKc@PLT
.L463:
	leaq	-1648(%rbp), %rax
	leaq	.LC105(%rip), %rdx
	movq	%rdx, %rsi
	movq	%rax, %rdi
	call	_ZSteqIcSt11char_traitsIcESaIcEEbRKNSt7__cxx1112basic_stringIT_T0_T1_EEPKS5_
	testb	%al, %al
	je	.L465
	leaq	-1616(%rbp), %rdx
	leaq	-544(%rbp), %rax
	movq	%rdx, %rsi
	movq	%rax, %rdi
	call	_ZStrsIcSt11char_traitsIcESaIcEERSt13basic_istreamIT_T0_ES7_RNSt7__cxx1112basic_stringIS4_S5_T1_EE@PLT
	leaq	-1712(%rbp), %rax
	movq	%rax, %rdi
	call	_ZNKSt7__cxx1112basic_stringIcSt11char_traitsIcESaIcEE5c_strEv@PLT
	movq	%rax, %rbx
	leaq	-1616(%rbp), %rax
	movq	%rax, %rdi
	call	_ZNKSt7__cxx1112basic_stringIcSt11char_traitsIcESaIcEE5c_strEv@PLT
	movq	%rbx, %rsi
	movq	%rax, %rdi
	call	strcmp@PLT
	testl	%eax, %eax
	sete	%al
	testb	%al, %al
	je	.L466
	leaq	.LC106(%rip), %rax
	movq	%rax, %rsi
	leaq	_ZSt4cout(%rip), %rax
	movq	%rax, %rdi
	call	_ZStlsISt11char_traitsIcEERSt13basic_ostreamIcT_ES5_PKc@PLT
	addl	$1, -1780(%rbp)
	jmp	.L465
.L466:
	leaq	.LC107(%rip), %rax
	movq	%rax, %rsi
	leaq	_ZSt4cout(%rip), %rax
	movq	%rax, %rdi
	call	_ZStlsISt11char_traitsIcEERSt13basic_ostreamIcT_ES5_PKc@PLT
.L465:
	leaq	-1648(%rbp), %rax
	leaq	.LC108(%rip), %rdx
	movq	%rdx, %rsi
	movq	%rax, %rdi
	call	_ZSteqIcSt11char_traitsIcESaIcEEbRKNSt7__cxx1112basic_stringIT_T0_T1_EEPKS5_
	testb	%al, %al
	je	.L460
	leaq	-1616(%rbp), %rdx
	leaq	-544(%rbp), %rax
	movq	%rdx, %rsi
	movq	%rax, %rdi
	call	_ZStrsIcSt11char_traitsIcESaIcEERSt13basic_istreamIT_T0_ES7_RNSt7__cxx1112basic_stringIS4_S5_T1_EE@PLT
	leaq	-1680(%rbp), %rax
	movq	%rax, %rdi
	call	_ZNKSt7__cxx1112basic_stringIcSt11char_traitsIcESaIcEE5c_strEv@PLT
	movq	%rax, %rbx
	leaq	-1616(%rbp), %rax
	movq	%rax, %rdi
	call	_ZNKSt7__cxx1112basic_stringIcSt11char_traitsIcESaIcEE5c_strEv@PLT
	movq	%rbx, %rsi
	movq	%rax, %rdi
	call	strcmp@PLT
	testl	%eax, %eax
	sete	%al
	testb	%al, %al
	je	.L467
	leaq	.LC109(%rip), %rax
	movq	%rax, %rsi
	leaq	_ZSt4cout(%rip), %rax
	movq	%rax, %rdi
	call	_ZStlsISt11char_traitsIcEERSt13basic_ostreamIcT_ES5_PKc@PLT
	addl	$1, -1780(%rbp)
	jmp	.L460
.L467:
	leaq	.LC110(%rip), %rax
	movq	%rax, %rsi
	leaq	_ZSt4cout(%rip), %rax
	movq	%rax, %rdi
	call	_ZStlsISt11char_traitsIcEERSt13basic_ostreamIcT_ES5_PKc@PLT
.L460:
	leaq	-544(%rbp), %rax
	addq	$256, %rax
	movq	%rax, %rdi
	call	_ZNKSt9basic_iosIcSt11char_traitsIcEE3eofEv@PLT
	xorl	$1, %eax
	testb	%al, %al
	jne	.L468
	cmpl	$4, -1780(%rbp)
	jne	.L469
	leaq	.LC111(%rip), %rax
	movq	%rax, %rsi
	leaq	_ZSt4cout(%rip), %rax
	movq	%rax, %rdi
	call	_ZStlsISt11char_traitsIcEERSt13basic_ostreamIcT_ES5_PKc@PLT
	movl	-1784(%rbp), %eax
	addl	$200001, %eax
	movl	%eax, -1784(%rbp)
	leaq	-1584(%rbp), %rax
	movq	%rax, %rdi
	call	_ZNSt14basic_ofstreamIcSt11char_traitsIcEEC1Ev@PLT
.LEHE167:
	leaq	-1584(%rbp), %rax
	movl	$16, %edx
	leaq	.LC50(%rip), %rcx
	movq	%rcx, %rsi
	movq	%rax, %rdi
.LEHB168:
	call	_ZNSt14basic_ofstreamIcSt11char_traitsIcEE4openEPKcSt13_Ios_Openmode@PLT
	movl	-1784(%rbp), %edx
	leaq	-1584(%rbp), %rax
	movl	%edx, %esi
	movq	%rax, %rdi
	call	_ZNSolsEi@PLT
	leaq	-1584(%rbp), %rax
	movq	%rax, %rdi
	call	_ZNSt14basic_ofstreamIcSt11char_traitsIcEE5closeEv@PLT
.LEHE168:
	leaq	-1584(%rbp), %rax
	movq	%rax, %rdi
	call	_ZNSt14basic_ofstreamIcSt11char_traitsIcEED1Ev@PLT
	jmp	.L470
.L469:
	leaq	.LC112(%rip), %rax
	movq	%rax, %rsi
	leaq	_ZSt4cout(%rip), %rax
	movq	%rax, %rdi
.LEHB169:
	call	_ZStlsISt11char_traitsIcEERSt13basic_ostreamIcT_ES5_PKc@PLT
.LEHE169:
.L470:
	leaq	-544(%rbp), %rax
	movq	%rax, %rdi
	call	_ZNSt14basic_ifstreamIcSt11char_traitsIcEED1Ev@PLT
	leaq	-1616(%rbp), %rax
	movq	%rax, %rdi
	call	_ZNSt7__cxx1112basic_stringIcSt11char_traitsIcESaIcEED1Ev@PLT
	leaq	-1648(%rbp), %rax
	movq	%rax, %rdi
	call	_ZNSt7__cxx1112basic_stringIcSt11char_traitsIcESaIcEED1Ev@PLT
	leaq	-1680(%rbp), %rax
	movq	%rax, %rdi
	call	_ZNSt7__cxx1112basic_stringIcSt11char_traitsIcESaIcEED1Ev@PLT
	leaq	-1712(%rbp), %rax
	movq	%rax, %rdi
	call	_ZNSt7__cxx1112basic_stringIcSt11char_traitsIcESaIcEED1Ev@PLT
	leaq	-1744(%rbp), %rax
	movq	%rax, %rdi
	call	_ZNSt7__cxx1112basic_stringIcSt11char_traitsIcESaIcEED1Ev@PLT
	leaq	-1776(%rbp), %rax
	movq	%rax, %rdi
	call	_ZNSt7__cxx1112basic_stringIcSt11char_traitsIcESaIcEED1Ev@PLT
	movl	$0, %ebx
	jmp	.L472
.L459:
	leaq	.LC113(%rip), %rax
	movq	%rax, %rsi
	leaq	_ZSt4cout(%rip), %rax
	movq	%rax, %rdi
.LEHB170:
	call	_ZStlsISt11char_traitsIcEERSt13basic_ostreamIcT_ES5_PKc@PLT
	call	main
.LEHE170:
	movl	%eax, %ebx
	nop
.L472:
	leaq	-1072(%rbp), %rax
	movq	%rax, %rdi
	call	_ZNSt14basic_ifstreamIcSt11char_traitsIcEED1Ev@PLT
	movl	%ebx, %eax
	movq	-24(%rbp), %rdx
	subq	%fs:40, %rdx
	je	.L479
	jmp	.L485
.L484:
	endbr64
	movq	%rax, %rbx
	leaq	-1584(%rbp), %rax
	movq	%rax, %rdi
	call	_ZNSt14basic_ofstreamIcSt11char_traitsIcEED1Ev@PLT
	jmp	.L475
.L483:
	endbr64
	movq	%rax, %rbx
.L475:
	leaq	-544(%rbp), %rax
	movq	%rax, %rdi
	call	_ZNSt14basic_ifstreamIcSt11char_traitsIcEED1Ev@PLT
	jmp	.L476
.L482:
	endbr64
	movq	%rax, %rbx
.L476:
	leaq	-1616(%rbp), %rax
	movq	%rax, %rdi
	call	_ZNSt7__cxx1112basic_stringIcSt11char_traitsIcESaIcEED1Ev@PLT
	leaq	-1648(%rbp), %rax
	movq	%rax, %rdi
	call	_ZNSt7__cxx1112basic_stringIcSt11char_traitsIcESaIcEED1Ev@PLT
	jmp	.L477
.L481:
	endbr64
	movq	%rax, %rbx
.L477:
	leaq	-1680(%rbp), %rax
	movq	%rax, %rdi
	call	_ZNSt7__cxx1112basic_stringIcSt11char_traitsIcESaIcEED1Ev@PLT
	leaq	-1712(%rbp), %rax
	movq	%rax, %rdi
	call	_ZNSt7__cxx1112basic_stringIcSt11char_traitsIcESaIcEED1Ev@PLT
	leaq	-1744(%rbp), %rax
	movq	%rax, %rdi
	call	_ZNSt7__cxx1112basic_stringIcSt11char_traitsIcESaIcEED1Ev@PLT
	leaq	-1776(%rbp), %rax
	movq	%rax, %rdi
	call	_ZNSt7__cxx1112basic_stringIcSt11char_traitsIcESaIcEED1Ev@PLT
	jmp	.L478
.L480:
	endbr64
	movq	%rax, %rbx
.L478:
	leaq	-1072(%rbp), %rax
	movq	%rax, %rdi
	call	_ZNSt14basic_ifstreamIcSt11char_traitsIcEED1Ev@PLT
	movq	%rbx, %rax
	movq	%rax, %rdi
.LEHB171:
	call	_Unwind_Resume@PLT
.LEHE171:
.L485:
	call	__stack_chk_fail@PLT
.L479:
	movq	-8(%rbp), %rbx
	leave
	.cfi_def_cfa 7, 8
	ret
	.cfi_endproc
.LFE5108:
	.section	.gcc_except_table
.LLSDA5108:
	.byte	0xff
	.byte	0xff
	.byte	0x1
	.uleb128 .LLSDACSE5108-.LLSDACSB5108
.LLSDACSB5108:
	.uleb128 .LEHB163-.LFB5108
	.uleb128 .LEHE163-.LEHB163
	.uleb128 0
	.uleb128 0
	.uleb128 .LEHB164-.LFB5108
	.uleb128 .LEHE164-.LEHB164
	.uleb128 .L480-.LFB5108
	.uleb128 0
	.uleb128 .LEHB165-.LFB5108
	.uleb128 .LEHE165-.LEHB165
	.uleb128 .L481-.LFB5108
	.uleb128 0
	.uleb128 .LEHB166-.LFB5108
	.uleb128 .LEHE166-.LEHB166
	.uleb128 .L482-.LFB5108
	.uleb128 0
	.uleb128 .LEHB167-.LFB5108
	.uleb128 .LEHE167-.LEHB167
	.uleb128 .L483-.LFB5108
	.uleb128 0
	.uleb128 .LEHB168-.LFB5108
	.uleb128 .LEHE168-.LEHB168
	.uleb128 .L484-.LFB5108
	.uleb128 0
	.uleb128 .LEHB169-.LFB5108
	.uleb128 .LEHE169-.LEHB169
	.uleb128 .L483-.LFB5108
	.uleb128 0
	.uleb128 .LEHB170-.LFB5108
	.uleb128 .LEHE170-.LEHB170
	.uleb128 .L480-.LFB5108
	.uleb128 0
	.uleb128 .LEHB171-.LFB5108
	.uleb128 .LEHE171-.LEHB171
	.uleb128 0
	.uleb128 0
.LLSDACSE5108:
	.text
	.size	_Z10card_enterv, .-_Z10card_enterv
	.section	.rodata
	.align 8
.LC114:
	.string	"\320\222\320\276 \321\207\321\202\320\276 \321\205\320\276\321\202\320\270\321\202\320\265 \320\262\320\276\320\271\321\202\320\270 ?\n"
	.align 8
.LC115:
	.string	"1 - \320\222 \320\272\320\276\321\210\320\265\320\273\320\265\320\272 2 - \320\222 \320\272\320\260\321\200\321\202\321\203\n"
	.text
	.globl	_Z5enterv
	.type	_Z5enterv, @function
_Z5enterv:
.LFB5109:
	.cfi_startproc
	endbr64
	pushq	%rbp
	.cfi_def_cfa_offset 16
	.cfi_offset 6, -16
	movq	%rsp, %rbp
	.cfi_def_cfa_register 6
	subq	$16, %rsp
	movq	%fs:40, %rax
	movq	%rax, -8(%rbp)
	xorl	%eax, %eax
	movl	$0, -12(%rbp)
	leaq	.LC114(%rip), %rax
	movq	%rax, %rsi
	leaq	_ZSt4cout(%rip), %rax
	movq	%rax, %rdi
	call	_ZStlsISt11char_traitsIcEERSt13basic_ostreamIcT_ES5_PKc@PLT
	leaq	.LC115(%rip), %rax
	movq	%rax, %rsi
	leaq	_ZSt4cout(%rip), %rax
	movq	%rax, %rdi
	call	_ZStlsISt11char_traitsIcEERSt13basic_ostreamIcT_ES5_PKc@PLT
	leaq	-12(%rbp), %rax
	movq	%rax, %rsi
	leaq	_ZSt3cin(%rip), %rax
	movq	%rax, %rdi
	call	_ZNSirsERi@PLT
	movl	-12(%rbp), %eax
	cmpl	$1, %eax
	je	.L487
	cmpl	$2, %eax
	je	.L488
	jmp	.L493
.L487:
	call	_Z12wallet_enterv
	call	main
	jmp	.L491
.L488:
	call	_Z10card_enterv
	call	main
	jmp	.L491
.L493:
	movl	$0, %eax
.L491:
	movq	-8(%rbp), %rdx
	subq	%fs:40, %rdx
	je	.L492
	call	__stack_chk_fail@PLT
.L492:
	leave
	.cfi_def_cfa 7, 8
	ret
	.cfi_endproc
.LFE5109:
	.size	_Z5enterv, .-_Z5enterv
	.section	.rodata
	.align 8
.LC116:
	.string	"1 - \320\222\320\275\320\265\321\201\320\265\320\275\320\270\320\265 \320\267\320\260\321\202\321\200\320\260\321\202 \n"
	.align 8
.LC117:
	.string	"2 - \320\222\320\275\320\265\321\201\320\265\320\275\320\270\320\265 \320\264\320\276\321\205\320\276\320\264\320\276\320\262\n"
	.align 8
.LC118:
	.string	"3 - \320\237\320\276\321\201\320\274\320\276\321\202\321\200\320\265\321\202\321\214 \320\270\320\275\321\204\320\276\321\200\320\274\320\260\321\206\320\270\321\216 \320\276 \321\202\321\200\320\260\321\202\320\260\321\205\n"
	.align 8
.LC119:
	.string	"4 - \320\237\320\276\321\201\320\274\320\276\321\202\321\200\320\265\321\202\321\214 \320\270\320\275\321\204\320\276\321\200\320\274\320\260\321\206\320\270\321\216 \320\276 \320\264\320\276\321\205\320\276\320\264\320\260\321\205\n"
	.align 8
.LC120:
	.string	"5 - \320\222\321\213\320\262\320\276\320\264 \320\261\320\260\320\273\320\260\320\275\321\201\320\260\n"
.LC121:
	.string	"6 - \320\222\321\213\321\205\320\276\320\264\n"
	.align 8
.LC122:
	.string	"\320\222\321\213 \320\275\320\265 \320\262\320\276\321\210\320\273\320\270 \320\262 \320\272\320\276\321\210\320\265\320\273\320\265\320\272 \n"
	.text
	.globl	_Z16wallet_functionsv
	.type	_Z16wallet_functionsv, @function
_Z16wallet_functionsv:
.LFB5110:
	.cfi_startproc
	.cfi_personality 0x9b,DW.ref.__gxx_personality_v0
	.cfi_lsda 0x1b,.LLSDA5110
	endbr64
	pushq	%rbp
	.cfi_def_cfa_offset 16
	.cfi_offset 6, -16
	movq	%rsp, %rbp
	.cfi_def_cfa_register 6
	pushq	%rbx
	subq	$1448, %rsp
	.cfi_offset 3, -24
	movq	%fs:40, %rax
	movq	%rax, -24(%rbp)
	xorl	%eax, %eax
	leaq	-1440(%rbp), %rax
	movq	%rax, %rdi
	call	_ZNSt7__cxx1112basic_stringIcSt11char_traitsIcESaIcEEC1Ev@PLT
	leaq	-1408(%rbp), %rax
	movq	%rax, %rdi
	call	_ZNSt7__cxx1112basic_stringIcSt11char_traitsIcESaIcEEC1Ev@PLT
	leaq	-1072(%rbp), %rax
	movq	%rax, %rdi
.LEHB172:
	call	_ZNSt14basic_ifstreamIcSt11char_traitsIcEEC1Ev@PLT
.LEHE172:
	leaq	-1072(%rbp), %rax
	movl	$8, %edx
	leaq	.LC76(%rip), %rcx
	movq	%rcx, %rsi
	movq	%rax, %rdi
.LEHB173:
	call	_ZNSt14basic_ifstreamIcSt11char_traitsIcEE4openEPKcSt13_Ios_Openmode@PLT
	jmp	.L495
.L496:
	leaq	-1440(%rbp), %rdx
	leaq	-1072(%rbp), %rax
	movq	%rdx, %rsi
	movq	%rax, %rdi
	call	_ZStrsIcSt11char_traitsIcESaIcEERSt13basic_istreamIT_T0_ES7_RNSt7__cxx1112basic_stringIS4_S5_T1_EE@PLT
	leaq	-1408(%rbp), %rdx
	leaq	-1072(%rbp), %rax
	movq	%rdx, %rsi
	movq	%rax, %rdi
	call	_ZStrsIcSt11char_traitsIcESaIcEERSt13basic_istreamIT_T0_ES7_RNSt7__cxx1112basic_stringIS4_S5_T1_EE@PLT
.L495:
	leaq	-1072(%rbp), %rax
	addq	$256, %rax
	movq	%rax, %rdi
	call	_ZNKSt9basic_iosIcSt11char_traitsIcEE3eofEv@PLT
	xorl	$1, %eax
	testb	%al, %al
	jne	.L496
	leaq	-1408(%rbp), %rdx
	leaq	-1376(%rbp), %rax
	movq	%rdx, %rsi
	movq	%rax, %rdi
	call	_ZNSt7__cxx1112basic_stringIcSt11char_traitsIcESaIcEEC1ERKS4_@PLT
.LEHE173:
	leaq	-1344(%rbp), %rax
	leaq	-1376(%rbp), %rdx
	movq	%rdx, %rsi
	movq	%rax, %rdi
.LEHB174:
	call	_Z7decryptNSt7__cxx1112basic_stringIcSt11char_traitsIcESaIcEEE
.LEHE174:
	leaq	-1440(%rbp), %rdx
	leaq	-544(%rbp), %rax
	movq	%rdx, %rsi
	movq	%rax, %rdi
.LEHB175:
	call	_ZNSt7__cxx1112basic_stringIcSt11char_traitsIcESaIcEEC1ERKS4_@PLT
.LEHE175:
	leaq	-1344(%rbp), %rdx
	leaq	-544(%rbp), %rcx
	leaq	-1312(%rbp), %rax
	movq	%rcx, %rsi
	movq	%rax, %rdi
.LEHB176:
	call	_ZN6PersonC1ENSt7__cxx1112basic_stringIcSt11char_traitsIcESaIcEEES5_
.LEHE176:
	leaq	-544(%rbp), %rax
	movq	%rax, %rdi
	call	_ZNSt7__cxx1112basic_stringIcSt11char_traitsIcESaIcEED1Ev@PLT
	leaq	-1344(%rbp), %rax
	movq	%rax, %rdi
	call	_ZNSt7__cxx1112basic_stringIcSt11char_traitsIcESaIcEED1Ev@PLT
	leaq	-1376(%rbp), %rax
	movq	%rax, %rdi
	call	_ZNSt7__cxx1112basic_stringIcSt11char_traitsIcESaIcEED1Ev@PLT
	movl	$-1, -1448(%rbp)
	leaq	-544(%rbp), %rax
	movq	%rax, %rdi
.LEHB177:
	call	_ZNSt14basic_ifstreamIcSt11char_traitsIcEEC1Ev@PLT
.LEHE177:
	leaq	-544(%rbp), %rax
	movl	$8, %edx
	leaq	.LC34(%rip), %rcx
	movq	%rcx, %rsi
	movq	%rax, %rdi
.LEHB178:
	call	_ZNSt14basic_ifstreamIcSt11char_traitsIcEE4openEPKcSt13_Ios_Openmode@PLT
	leaq	-1448(%rbp), %rdx
	leaq	-544(%rbp), %rax
	movq	%rdx, %rsi
	movq	%rax, %rdi
	call	_ZNSirsERi@PLT
	leaq	-544(%rbp), %rax
	movq	%rax, %rdi
	call	_ZNSt14basic_ifstreamIcSt11char_traitsIcEE5closeEv@PLT
	movl	-1448(%rbp), %eax
	testl	%eax, %eax
	js	.L497
	movl	$0, -1444(%rbp)
.L505:
	leaq	.LC77(%rip), %rax
	movq	%rax, %rsi
	leaq	_ZSt4cout(%rip), %rax
	movq	%rax, %rdi
	call	_ZStlsISt11char_traitsIcEERSt13basic_ostreamIcT_ES5_PKc@PLT
	leaq	.LC116(%rip), %rax
	movq	%rax, %rsi
	leaq	_ZSt4cout(%rip), %rax
	movq	%rax, %rdi
	call	_ZStlsISt11char_traitsIcEERSt13basic_ostreamIcT_ES5_PKc@PLT
	leaq	.LC117(%rip), %rax
	movq	%rax, %rsi
	leaq	_ZSt4cout(%rip), %rax
	movq	%rax, %rdi
	call	_ZStlsISt11char_traitsIcEERSt13basic_ostreamIcT_ES5_PKc@PLT
	leaq	.LC118(%rip), %rax
	movq	%rax, %rsi
	leaq	_ZSt4cout(%rip), %rax
	movq	%rax, %rdi
	call	_ZStlsISt11char_traitsIcEERSt13basic_ostreamIcT_ES5_PKc@PLT
	leaq	.LC119(%rip), %rax
	movq	%rax, %rsi
	leaq	_ZSt4cout(%rip), %rax
	movq	%rax, %rdi
	call	_ZStlsISt11char_traitsIcEERSt13basic_ostreamIcT_ES5_PKc@PLT
	leaq	.LC120(%rip), %rax
	movq	%rax, %rsi
	leaq	_ZSt4cout(%rip), %rax
	movq	%rax, %rdi
	call	_ZStlsISt11char_traitsIcEERSt13basic_ostreamIcT_ES5_PKc@PLT
	leaq	.LC121(%rip), %rax
	movq	%rax, %rsi
	leaq	_ZSt4cout(%rip), %rax
	movq	%rax, %rdi
	call	_ZStlsISt11char_traitsIcEERSt13basic_ostreamIcT_ES5_PKc@PLT
	leaq	-1444(%rbp), %rax
	movq	%rax, %rsi
	leaq	_ZSt3cin(%rip), %rax
